; ModuleID = 'build/_main_._all_._files_._linked_.bc'
source_filename = "llvm-link"
target datalayout = "e-m:e-i8:8:32-i16:16:32-i64:64-i128:128-n32:64-S128"
target triple = "aarch64-unknown-linux-gnu"

%class.wayobj = type <{ i32, i32, i32, i32, i32, i32, i32, i32, i32, float, float, float, float, float, %struct.createwaymnginfot, %struct.createwayinfot, [4 x i8], i16*, %struct.waymapcellt*, i32*, i32*, i32, i32, i8, [3 x i8], i32, i16, i16, [4 x i8] }>
%struct.createwaymnginfot = type { float, float, float, float, i32, i32, float, float }
%struct.createwayinfot = type <{ %class.rvectort, %class.rvectort, i8, [3 x i8] }>
%class.rvectort = type { float, float, float }
%struct.waymapcellt = type { i16, i16 }
%class.way2obj = type { i8*, %struct.waymapcellt*, i16, [256 x i8], [256 x %class.flexarray.4], i32, i32, i32, i32, i32, i32, i32, i8, i32, i32, %union.anon, %union.anon, i32, i32 }
%class.flexarray.4 = type { %struct.pointt*, i32, i32 }
%struct.pointt = type { i32, i32 }
%union.anon = type { i32 }
%class.regmngobj = type { i16*, i16, i32, i32, i8, i32, %class.regobj**, i8*, [256 x i8], i32, i32, float, i32, i32, %union.anon, %union.anon, i32, i32, %class.largesolidarray }
%class.regobj = type { i32, i8, i8, %class.regmngobj*, i32, %struct.pointt, i32, i32, i32, %class.flexarray }
%class.flexarray = type { %class.regobj**, i32, i32 }
%class.largesolidarray = type { %class.regobj**, %class.flexstack, %class.flexstack, %class.flexstack, i32, i32 }
%class.flexstack = type { i32*, i32, i32 }
%class.regwayobj = type { i32 (...)**, %class.flexarray, %class.flexarray, i32, i32, %class.regmngobj*, i8, %class.regobj*, %class.regobj* }
%struct.anon = type { i8, i8, i8, i8 }
%class.regboundobj = type <{ %class.flexarray.4, %class.flexarray.4, i8, [3 x i8], i32, %class.regobj*, i32, i32, i32, i32, %class.regobj**, i8*, i32, i32, i32, i32, %class.regmngobj*, i8, [7 x i8] }>
%struct.statinfot = type { double, double, double, double, double, i64, i64, i64, i64, i64, i64, i64, i64 }
%struct.workinfot = type { [4096 x i8], i32, i32, i32, i32, i32, i32, i32, float, i32, i32, i32 }
%struct._IO_FILE = type { i32, i8*, i8*, i8*, i8*, i8*, i8*, i8*, i8*, i8*, i8*, i8*, %struct._IO_marker*, %struct._IO_FILE*, i32, i32, i64, i16, i8, [1 x i8], i8*, i64, %struct._IO_codecvt*, %struct._IO_wide_data*, %struct._IO_FILE*, i8*, i64, i32, [20 x i8] }
%struct._IO_marker = type opaque
%struct._IO_codecvt = type opaque
%struct._IO_wide_data = type opaque
%struct.levelplacet = type { i16, i16, float, float, float }
%struct.wayinfot = type { i8, %class.rvectort*, i32, i8 }

$_ZN15largesolidarrayIP6regobjE6createEi = comdat any

$_ZN15largesolidarrayIP6regobjE8doublingEv = comdat any

$_ZN9flexarrayIiE8doublingEb = comdat any

$_ZN15largesolidarrayIP6regobjE6removeEi = comdat any

$_ZN9flexarrayIP6regobjE8doublingEb = comdat any

$_ZN9flexarrayI6pointtE8doublingEb = comdat any

@.str = private unnamed_addr constant [23 x i8] c"Error in createregions\00", align 1
@way = dso_local global %class.wayobj zeroinitializer, align 8
@way2 = dso_local global %class.way2obj zeroinitializer, align 8
@regmng = dso_local global %class.regmngobj zeroinitializer, align 8
@regway = dso_local global %class.regwayobj { i32 (...)** bitcast (i8** getelementptr inbounds ({ [5 x i8*] }, { [5 x i8*] }* @_ZTV9regwayobj, i32 0, inrange i32 0, i32 2) to i32 (...)**), %class.flexarray zeroinitializer, %class.flexarray zeroinitializer, i32 0, i32 0, %class.regmngobj* null, i8 0, %class.regobj* null, %class.regobj* null }, align 8
@llvm.global_ctors = appending global [0 x { i32, void ()*, i8* }] zeroinitializer
@.str.9 = private unnamed_addr constant [33 x i8] c"Create regional map time : %.0f\0A\00", align 1
@.str.3 = private unnamed_addr constant [25 x i8] c"Create ways time : %.0f\0A\00", align 1
@.str.4 = private unnamed_addr constant [21 x i8] c"Ways quantity : %ld\0A\00", align 1
@.str.5 = private unnamed_addr constant [24 x i8] c"Total way length : %ld\0A\00", align 1
@.str.6 = private unnamed_addr constant [29 x i8] c"Create reg ways time : %.0f\0A\00", align 1
@.str.7 = private unnamed_addr constant [25 x i8] c"Reg ways quantity : %ld\0A\00", align 1
@.str.8 = private unnamed_addr constant [28 x i8] c"Total reg way length : %ld\0A\00", align 1
@.str.9.10 = private unnamed_addr constant [31 x i8] c"Create river ways time : %.0f\0A\00", align 1
@.str.10 = private unnamed_addr constant [27 x i8] c"River ways quantity : %ld\0A\00", align 1
@.str.11 = private unnamed_addr constant [30 x i8] c"Total river way length : %ld\0A\00", align 1
@.str.12 = private unnamed_addr constant [30 x i8] c"Create land ways time : %.0f\0A\00", align 1
@.str.13 = private unnamed_addr constant [26 x i8] c"Land ways quantity : %ld\0A\00", align 1
@.str.14 = private unnamed_addr constant [29 x i8] c"Total land way length : %ld\0A\00", align 1
@str = private unnamed_addr constant [27 x i8] c"Small Path Finding Library\00", align 1
@str.26 = private unnamed_addr constant [24 x i8] c"Read configuration file\00", align 1
@str.31 = private unnamed_addr constant [36 x i8] c"Cannot read configuration file name\00", align 1
@.str.18 = private unnamed_addr constant [2 x i8] c"r\00", align 1
@str.27 = private unnamed_addr constant [31 x i8] c"Cannot read configuration file\00", align 1
@.str.20 = private unnamed_addr constant [3 x i8] c"%s\00", align 1
@.str.21 = private unnamed_addr constant [3 x i8] c"%d\00", align 1
@.str.22 = private unnamed_addr constant [3 x i8] c"%f\00", align 1
@str.29 = private unnamed_addr constant [12 x i8] c"Create ways\00", align 1
@str.30 = private unnamed_addr constant [11 x i8] c"Random map\00", align 1
@_ZL5y1rnd = internal unnamed_addr global i32 1023, align 4
@_ZL5y2rnd = internal unnamed_addr global i32 11, align 4
@_ZL5y3rnd = internal unnamed_addr global i32 3007, align 4
@_ZN6regobj9bound1arpE = dso_local global %class.flexarray.4 zeroinitializer, align 8
@_ZN6regobj9bound2arpE = dso_local global %class.flexarray.4 zeroinitializer, align 8
@_ZN6regobj6boundlE = dso_local local_unnamed_addr global i32 0, align 4
@_ZN6regobj5floddE = dso_local local_unnamed_addr global i8 0, align 4
@_ZTV9regwayobj = dso_local unnamed_addr constant { [5 x i8*] } { [5 x i8*] [i8* null, i8* bitcast ({ i8*, i8* }* @_ZTI9regwayobj to i8*), i8* bitcast (i1 (%class.regwayobj*, %class.regobj*, %class.regobj*)* @_ZN9regwayobj12isaddtoboundEP6regobjS1_ to i8*), i8* bitcast (void (%class.regwayobj*, %class.regmngobj*)* @_ZN9regwayobj6createEP9regmngobj to i8*), i8* bitcast (void (%class.regwayobj*)* @_ZN9regwayobj7destroyEv to i8*)] }, align 8
@_ZTI9regwayobj = dso_local constant { i8*, i8* } { i8* bitcast (i8** getelementptr inbounds (i8*, i8** @_ZTVN10__cxxabiv117__class_type_infoE, i64 2) to i8*), i8* getelementptr inbounds ([11 x i8], [11 x i8]* @_ZTS9regwayobj, i32 0, i32 0) }, align 8
@_ZTVN10__cxxabiv117__class_type_infoE = external dso_local global i8*
@_ZTS9regwayobj = dso_local constant [11 x i8] c"9regwayobj\00", align 1

; Function Attrs: optsize
define dso_local void @_ZN9regmngobj6createEv(%class.regmngobj* %this) local_unnamed_addr #0 align 2 {
entry:
  %rarp = getelementptr inbounds %class.regmngobj, %class.regmngobj* %this, i64 0, i32 18
  tail call void @_ZN15largesolidarrayIP6regobjE6createEi(%class.largesolidarray* nonnull %rarp, i32 16) #19
  %regionmapp = getelementptr inbounds %class.regmngobj, %class.regmngobj* %this, i64 0, i32 6
  %mmapp = getelementptr inbounds %class.regmngobj, %class.regmngobj* %this, i64 0, i32 0
  store i16* null, i16** %mmapp, align 8, !tbaa !2
  %regfillnum = getelementptr inbounds %class.regmngobj, %class.regmngobj* %this, i64 0, i32 5
  store i32 0, i32* %regfillnum, align 8, !tbaa !14
  %0 = bitcast %class.regobj*** %regionmapp to i8*
  call void @llvm.memset.p0i8.i64(i8* nonnull align 8 dereferenceable(16) %0, i8 0, i64 16, i1 false)
  ret void
}

; Function Attrs: optsize
define linkonce_odr dso_local void @_ZN15largesolidarrayIP6regobjE6createEi(%class.largesolidarray* %this, i32 %maxelemquin) local_unnamed_addr #0 comdat align 2 {
entry:
  %maxelemqu = getelementptr inbounds %class.largesolidarray, %class.largesolidarray* %this, i64 0, i32 5
  store i32 %maxelemquin, i32* %maxelemqu, align 4, !tbaa !15
  %elemqu = getelementptr inbounds %class.largesolidarray, %class.largesolidarray* %this, i64 0, i32 4
  store i32 0, i32* %elemqu, align 8, !tbaa !16
  %conv = sext i32 %maxelemquin to i64
  %mul = shl nsw i64 %conv, 3
  %call = tail call noalias i8* @malloc(i64 %mul) #20
  %0 = bitcast %class.largesolidarray* %this to i8**
  store i8* %call, i8** %0, align 8, !tbaa !17
  %dccellar = getelementptr inbounds %class.largesolidarray, %class.largesolidarray* %this, i64 0, i32 2
  %maxelemqu.i = getelementptr inbounds %class.largesolidarray, %class.largesolidarray* %this, i64 0, i32 2, i32 2
  store i32 %maxelemquin, i32* %maxelemqu.i, align 4, !tbaa !18
  %elemqu.i = getelementptr inbounds %class.largesolidarray, %class.largesolidarray* %this, i64 0, i32 2, i32 1
  store i32 0, i32* %elemqu.i, align 8, !tbaa !19
  %mul.i = shl i32 %maxelemquin, 2
  %conv.i.i = sext i32 %mul.i to i64
  %call.i.i = tail call noalias i8* @malloc(i64 %conv.i.i) #20
  %1 = bitcast %class.flexstack* %dccellar to i8**
  store i8* %call.i.i, i8** %1, align 8, !tbaa !20
  %rccellar = getelementptr inbounds %class.largesolidarray, %class.largesolidarray* %this, i64 0, i32 3
  %maxelemqu.i11 = getelementptr inbounds %class.largesolidarray, %class.largesolidarray* %this, i64 0, i32 3, i32 2
  store i32 %maxelemquin, i32* %maxelemqu.i11, align 4, !tbaa !18
  %elemqu.i12 = getelementptr inbounds %class.largesolidarray, %class.largesolidarray* %this, i64 0, i32 3, i32 1
  store i32 0, i32* %elemqu.i12, align 8, !tbaa !19
  %call.i.i15 = tail call noalias i8* @malloc(i64 %conv.i.i) #20
  %2 = bitcast %class.flexstack* %rccellar to i8**
  store i8* %call.i.i15, i8** %2, align 8, !tbaa !20
  %freecellholder = getelementptr inbounds %class.largesolidarray, %class.largesolidarray* %this, i64 0, i32 1
  %maxelemqu.i16 = getelementptr inbounds %class.largesolidarray, %class.largesolidarray* %this, i64 0, i32 1, i32 2
  store i32 %maxelemquin, i32* %maxelemqu.i16, align 4, !tbaa !21
  %elemqu.i17 = getelementptr inbounds %class.largesolidarray, %class.largesolidarray* %this, i64 0, i32 1, i32 1
  store i32 0, i32* %elemqu.i17, align 8, !tbaa !22
  %mul.i18 = shl nsw i64 %conv, 2
  %call.i = tail call noalias i8* @malloc(i64 %mul.i18) #20
  %3 = bitcast %class.flexstack* %freecellholder to i8**
  store i8* %call.i, i8** %3, align 8, !tbaa !23
  %cmp23 = icmp sgt i32 %maxelemquin, 0
  br i1 %cmp23, label %for.body.lr.ph, label %for.end

for.body.lr.ph:                                   ; preds = %entry
  %4 = bitcast i8* %call.i to i32*
  br label %for.body

for.body:                                         ; preds = %_ZN9flexstackIiE3putEi.exit.for.body_crit_edge, %for.body.lr.ph
  %5 = phi i8* [ %call.i, %for.body.lr.ph ], [ %9, %_ZN9flexstackIiE3putEi.exit.for.body_crit_edge ]
  %.pre.i = phi i32* [ %4, %for.body.lr.ph ], [ %.pre.i26, %_ZN9flexstackIiE3putEi.exit.for.body_crit_edge ]
  %6 = phi i32 [ %maxelemquin, %for.body.lr.ph ], [ %.pre, %_ZN9flexstackIiE3putEi.exit.for.body_crit_edge ]
  %7 = phi i32 [ 0, %for.body.lr.ph ], [ %inc.i, %_ZN9flexstackIiE3putEi.exit.for.body_crit_edge ]
  %i.024 = phi i32 [ 0, %for.body.lr.ph ], [ %inc, %_ZN9flexstackIiE3putEi.exit.for.body_crit_edge ]
  %cmp.i = icmp eq i32 %7, %6
  br i1 %cmp.i, label %if.then.i, label %_ZN9flexstackIiE3putEi.exit

if.then.i:                                        ; preds = %for.body
  %shl.i.i = shl i32 %6, 1
  %conv.i.i21 = sext i32 %shl.i.i to i64
  %mul.i.i = shl nsw i64 %conv.i.i21, 2
  %call.i.i22 = tail call noalias i8* @malloc(i64 %mul.i.i) #20
  %conv3.i.i = sext i32 %6 to i64
  %mul4.i.i = shl nsw i64 %conv3.i.i, 2
  tail call void @llvm.memcpy.p0i8.p0i8.i64(i8* align 4 %call.i.i22, i8* align 4 %5, i64 %mul4.i.i, i1 false) #21
  tail call void @free(i8* %5) #20
  store i8* %call.i.i22, i8** %3, align 8, !tbaa !23
  store i32 %shl.i.i, i32* %maxelemqu.i16, align 4, !tbaa !21
  %8 = bitcast i8* %call.i.i22 to i32*
  %.pre4.i = load i32, i32* %elemqu.i17, align 8, !tbaa !22
  br label %_ZN9flexstackIiE3putEi.exit

_ZN9flexstackIiE3putEi.exit:                      ; preds = %for.body, %if.then.i
  %9 = phi i8* [ %call.i.i22, %if.then.i ], [ %5, %for.body ]
  %.pre.i26 = phi i32* [ %8, %if.then.i ], [ %.pre.i, %for.body ]
  %10 = phi i32 [ %.pre4.i, %if.then.i ], [ %7, %for.body ]
  %idxprom.i = sext i32 %10 to i64
  %arrayidx.i = getelementptr inbounds i32, i32* %.pre.i26, i64 %idxprom.i
  store i32 %i.024, i32* %arrayidx.i, align 4, !tbaa !24
  %11 = load i32, i32* %elemqu.i17, align 8, !tbaa !22
  %inc.i = add nsw i32 %11, 1
  store i32 %inc.i, i32* %elemqu.i17, align 8, !tbaa !22
  %inc = add nuw nsw i32 %i.024, 1
  %12 = load i32, i32* %maxelemqu, align 4, !tbaa !15
  %cmp = icmp slt i32 %inc, %12
  br i1 %cmp, label %_ZN9flexstackIiE3putEi.exit.for.body_crit_edge, label %for.end

_ZN9flexstackIiE3putEi.exit.for.body_crit_edge:   ; preds = %_ZN9flexstackIiE3putEi.exit
  %.pre = load i32, i32* %maxelemqu.i16, align 4, !tbaa !21
  br label %for.body

for.end:                                          ; preds = %_ZN9flexstackIiE3putEi.exit, %entry
  ret void
}

; Function Attrs: argmemonly nounwind willreturn writeonly
declare void @llvm.memset.p0i8.i64(i8* nocapture writeonly, i8, i64, i1 immarg) #1

; Function Attrs: nofree nounwind optsize
declare dso_local noalias i8* @malloc(i64) local_unnamed_addr #2

; Function Attrs: argmemonly nounwind willreturn
declare void @llvm.memcpy.p0i8.p0i8.i64(i8* noalias nocapture writeonly, i8* noalias nocapture readonly, i64, i1 immarg) #3

; Function Attrs: nounwind optsize
declare dso_local void @free(i8* nocapture) local_unnamed_addr #4

; Function Attrs: optsize
define dso_local void @_ZN9regmngobj7destroyEv(%class.regmngobj* nocapture %this) local_unnamed_addr #0 align 2 {
entry:
  %rarp = getelementptr inbounds %class.regmngobj, %class.regmngobj* %this, i64 0, i32 18
  %elemqu = getelementptr inbounds %class.regmngobj, %class.regmngobj* %this, i64 0, i32 18, i32 4
  %0 = load i32, i32* %elemqu, align 8, !tbaa !25
  %cmp16 = icmp sgt i32 %0, 0
  br i1 %cmp16, label %for.body.lr.ph, label %for.end

for.body.lr.ph:                                   ; preds = %entry
  %ep.i = getelementptr inbounds %class.largesolidarray, %class.largesolidarray* %rarp, i64 0, i32 0
  br label %for.body

for.body:                                         ; preds = %for.body.lr.ph, %for.inc
  %indvars.iv = phi i64 [ 0, %for.body.lr.ph ], [ %indvars.iv.next, %for.inc ]
  %1 = load %class.regobj**, %class.regobj*** %ep.i, align 8, !tbaa !17
  %arrayidx.i = getelementptr inbounds %class.regobj*, %class.regobj** %1, i64 %indvars.iv
  %2 = load %class.regobj*, %class.regobj** %arrayidx.i, align 8, !tbaa !26
  tail call void @_ZN6regobj7destroyEv(%class.regobj* %2) #19
  %3 = load %class.regobj**, %class.regobj*** %ep.i, align 8, !tbaa !17
  %arrayidx.i15 = getelementptr inbounds %class.regobj*, %class.regobj** %3, i64 %indvars.iv
  %4 = load %class.regobj*, %class.regobj** %arrayidx.i15, align 8, !tbaa !26
  %isnull = icmp eq %class.regobj* %4, null
  br i1 %isnull, label %for.inc, label %delete.notnull

delete.notnull:                                   ; preds = %for.body
  %5 = bitcast %class.regobj* %4 to i8*
  tail call void @_ZdlPv(i8* %5) #22
  br label %for.inc

for.inc:                                          ; preds = %for.body, %delete.notnull
  %indvars.iv.next = add nuw nsw i64 %indvars.iv, 1
  %6 = load i32, i32* %elemqu, align 8, !tbaa !25
  %7 = sext i32 %6 to i64
  %cmp = icmp slt i64 %indvars.iv.next, %7
  br i1 %cmp, label %for.body, label %for.end

for.end:                                          ; preds = %for.inc, %entry
  %rccellar.i = getelementptr inbounds %class.regmngobj, %class.regmngobj* %this, i64 0, i32 18, i32 3
  %8 = bitcast %class.flexstack* %rccellar.i to i8**
  %9 = load i8*, i8** %8, align 8, !tbaa !20
  tail call void @free(i8* %9) #20
  %dccellar.i = getelementptr inbounds %class.regmngobj, %class.regmngobj* %this, i64 0, i32 18, i32 2
  %10 = bitcast %class.flexstack* %dccellar.i to i8**
  %11 = load i8*, i8** %10, align 8, !tbaa !20
  tail call void @free(i8* %11) #20
  %freecellholder.i = getelementptr inbounds %class.regmngobj, %class.regmngobj* %this, i64 0, i32 18, i32 1
  %12 = bitcast %class.flexstack* %freecellholder.i to i8**
  %13 = load i8*, i8** %12, align 8, !tbaa !23
  tail call void @free(i8* %13) #20
  %14 = bitcast %class.largesolidarray* %rarp to i8**
  %15 = load i8*, i8** %14, align 8, !tbaa !17
  tail call void @free(i8* %15) #20
  %regionmapp = getelementptr inbounds %class.regmngobj, %class.regmngobj* %this, i64 0, i32 6
  %16 = bitcast %class.regobj*** %regionmapp to i8**
  %17 = load i8*, i8** %16, align 8, !tbaa !27
  tail call void @free(i8* %17) #20
  store %class.regobj** null, %class.regobj*** %regionmapp, align 8, !tbaa !27
  %landscapemapp = getelementptr inbounds %class.regmngobj, %class.regmngobj* %this, i64 0, i32 7
  %18 = load i8*, i8** %landscapemapp, align 8, !tbaa !28
  tail call void @free(i8* %18) #20
  store i8* null, i8** %landscapemapp, align 8, !tbaa !28
  %mmapp = getelementptr inbounds %class.regmngobj, %class.regmngobj* %this, i64 0, i32 0
  %19 = bitcast %class.regmngobj* %this to i8**
  %20 = load i8*, i8** %19, align 8, !tbaa !2
  tail call void @free(i8* %20) #20
  store i16* null, i16** %mmapp, align 8, !tbaa !2
  ret void
}

; Function Attrs: nobuiltin nounwind optsize
declare dso_local void @_ZdlPv(i8*) local_unnamed_addr #5

; Function Attrs: optsize
define dso_local i1 @_ZN9regmngobj7loadmapEPKc(%class.regmngobj* nocapture %this, i8* nocapture readonly %fn) local_unnamed_addr #0 align 2 {
entry:
  %call = tail call i32 (i8*, i32, ...) @open(i8* %fn, i32 0) #19
  %cmp = icmp eq i32 %call, -1
  br i1 %cmp, label %cleanup, label %if.end

if.end:                                           ; preds = %entry
  %xRunion = getelementptr inbounds %class.regmngobj, %class.regmngobj* %this, i64 0, i32 14
  %xRstruc = bitcast %union.anon* %xRunion to %struct.anon*
  %xR1 = bitcast %union.anon* %xRunion to i8*
  %call2 = tail call i64 @read(i32 %call, i8* nonnull %xR1, i64 1) #19
  %xR2 = getelementptr inbounds %struct.anon, %struct.anon* %xRstruc, i64 0, i32 1
  %call5 = tail call i64 @read(i32 %call, i8* nonnull %xR2, i64 1) #19
  %xR3 = getelementptr inbounds %struct.anon, %struct.anon* %xRstruc, i64 0, i32 2
  %call8 = tail call i64 @read(i32 %call, i8* nonnull %xR3, i64 1) #19
  %xR4 = getelementptr inbounds %struct.anon, %struct.anon* %xRstruc, i64 0, i32 3
  %call11 = tail call i64 @read(i32 %call, i8* nonnull %xR4, i64 1) #19
  %yRunion = getelementptr inbounds %class.regmngobj, %class.regmngobj* %this, i64 0, i32 15
  %yRstruc = bitcast %union.anon* %yRunion to %struct.anon*
  %yR1 = bitcast %union.anon* %yRunion to i8*
  %call12 = tail call i64 @read(i32 %call, i8* nonnull %yR1, i64 1) #19
  %yR2 = getelementptr inbounds %struct.anon, %struct.anon* %yRstruc, i64 0, i32 1
  %call15 = tail call i64 @read(i32 %call, i8* nonnull %yR2, i64 1) #19
  %yR3 = getelementptr inbounds %struct.anon, %struct.anon* %yRstruc, i64 0, i32 2
  %call18 = tail call i64 @read(i32 %call, i8* nonnull %yR3, i64 1) #19
  %yR4 = getelementptr inbounds %struct.anon, %struct.anon* %yRstruc, i64 0, i32 3
  %call21 = tail call i64 @read(i32 %call, i8* nonnull %yR4, i64 1) #19
  %xRmapsizex = getelementptr %union.anon, %union.anon* %xRunion, i64 0, i32 0
  %0 = load i32, i32* %xRmapsizex, align 4, !tbaa !29
  %mapsizex = getelementptr inbounds %class.regmngobj, %class.regmngobj* %this, i64 0, i32 16
  store i32 %0, i32* %mapsizex, align 4, !tbaa !30
  %yRmapsizey = getelementptr %union.anon, %union.anon* %yRunion, i64 0, i32 0
  %1 = load i32, i32* %yRmapsizey, align 8, !tbaa !29
  %mapsizey = getelementptr inbounds %class.regmngobj, %class.regmngobj* %this, i64 0, i32 17
  store i32 %1, i32* %mapsizey, align 8, !tbaa !31
  %sub = add nsw i32 %0, -1
  %mapmaxx = getelementptr inbounds %class.regmngobj, %class.regmngobj* %this, i64 0, i32 12
  store i32 %sub, i32* %mapmaxx, align 4, !tbaa !32
  %sub26 = add nsw i32 %1, -1
  %mapmaxy = getelementptr inbounds %class.regmngobj, %class.regmngobj* %this, i64 0, i32 13
  store i32 %sub26, i32* %mapmaxy, align 8, !tbaa !33
  %mul = mul nsw i32 %1, %0
  %conv = sext i32 %mul to i64
  %mul29 = shl nsw i64 %conv, 3
  %call30 = tail call noalias i8* @malloc(i64 %mul29) #20
  %regionmapp = getelementptr inbounds %class.regmngobj, %class.regmngobj* %this, i64 0, i32 6
  %2 = bitcast %class.regobj*** %regionmapp to i8**
  store i8* %call30, i8** %2, align 8, !tbaa !27
  %call36 = tail call noalias i8* @malloc(i64 %conv) #20
  %landscapemapp = getelementptr inbounds %class.regmngobj, %class.regmngobj* %this, i64 0, i32 7
  store i8* %call36, i8** %landscapemapp, align 8, !tbaa !28
  %mul41 = shl nsw i64 %conv, 1
  %call42 = tail call noalias i8* @malloc(i64 %mul41) #20
  %3 = bitcast %class.regmngobj* %this to i8**
  store i8* %call42, i8** %3, align 8, !tbaa !2
  tail call void @llvm.memset.p0i8.i64(i8* align 2 %call42, i8 0, i64 %mul41, i1 false)
  %fillnum = getelementptr inbounds %class.regmngobj, %class.regmngobj* %this, i64 0, i32 1
  store i16 0, i16* %fillnum, align 8, !tbaa !34
  %call55 = tail call i64 @read(i32 %call, i8* %call36, i64 %conv) #19
  %scevgep = getelementptr %class.regmngobj, %class.regmngobj* %this, i64 0, i32 8, i64 0
  %4 = getelementptr %class.regmngobj, %class.regmngobj* %this, i64 0, i32 8, i64 1
  call void @llvm.memset.p0i8.i64(i8* nonnull align 1 dereferenceable(256) %4, i8 0, i64 255, i1 false)
  store i8 1, i8* %scevgep, align 8, !tbaa !35
  %call59 = tail call i32 @close(i32 %call) #19
  br label %cleanup

cleanup:                                          ; preds = %entry, %if.end
  %retval.0 = phi i1 [ true, %if.end ], [ false, %entry ]
  ret i1 %retval.0
}

; Function Attrs: nofree optsize
declare dso_local i32 @open(i8* nocapture readonly, i32, ...) local_unnamed_addr #6

; Function Attrs: nofree optsize
declare dso_local i64 @read(i32, i8* nocapture, i64) local_unnamed_addr #6

; Function Attrs: optsize
declare dso_local i32 @close(i32) local_unnamed_addr #7

; Function Attrs: nounwind optsize
define dso_local i1 @_ZN9regmngobj7initmapEii(%class.regmngobj* nocapture %this, i32 %mapsizexin, i32 %mapsizeyin) local_unnamed_addr #8 align 2 {
entry:
  %mapsizex = getelementptr inbounds %class.regmngobj, %class.regmngobj* %this, i64 0, i32 16
  store i32 %mapsizexin, i32* %mapsizex, align 4, !tbaa !30
  %mapsizey = getelementptr inbounds %class.regmngobj, %class.regmngobj* %this, i64 0, i32 17
  store i32 %mapsizeyin, i32* %mapsizey, align 8, !tbaa !31
  %sub = add nsw i32 %mapsizexin, -1
  %mapmaxx = getelementptr inbounds %class.regmngobj, %class.regmngobj* %this, i64 0, i32 12
  store i32 %sub, i32* %mapmaxx, align 4, !tbaa !32
  %sub4 = add nsw i32 %mapsizeyin, -1
  %mapmaxy = getelementptr inbounds %class.regmngobj, %class.regmngobj* %this, i64 0, i32 13
  store i32 %sub4, i32* %mapmaxy, align 8, !tbaa !33
  %mul = mul nsw i32 %mapsizeyin, %mapsizexin
  %conv = sext i32 %mul to i64
  %mul7 = shl nsw i64 %conv, 3
  %call = tail call noalias i8* @malloc(i64 %mul7) #20
  %regionmapp = getelementptr inbounds %class.regmngobj, %class.regmngobj* %this, i64 0, i32 6
  %0 = bitcast %class.regobj*** %regionmapp to i8**
  store i8* %call, i8** %0, align 8, !tbaa !27
  %call13 = tail call noalias i8* @malloc(i64 %conv) #20
  %landscapemapp = getelementptr inbounds %class.regmngobj, %class.regmngobj* %this, i64 0, i32 7
  store i8* %call13, i8** %landscapemapp, align 8, !tbaa !28
  %mul18 = shl nsw i64 %conv, 1
  %call19 = tail call noalias i8* @malloc(i64 %mul18) #20
  %1 = bitcast %class.regmngobj* %this to i8**
  store i8* %call19, i8** %1, align 8, !tbaa !2
  tail call void @llvm.memset.p0i8.i64(i8* align 2 %call19, i8 0, i64 %mul18, i1 false)
  %fillnum = getelementptr inbounds %class.regmngobj, %class.regmngobj* %this, i64 0, i32 1
  store i16 0, i16* %fillnum, align 8, !tbaa !34
  %scevgep = getelementptr %class.regmngobj, %class.regmngobj* %this, i64 0, i32 8, i64 0
  %2 = getelementptr %class.regmngobj, %class.regmngobj* %this, i64 0, i32 8, i64 1
  call void @llvm.memset.p0i8.i64(i8* nonnull align 1 dereferenceable(256) %2, i8 0, i64 255, i1 false)
  store i8 1, i8* %scevgep, align 8, !tbaa !35
  ret i1 true
}

; Function Attrs: nofree norecurse nounwind optsize
define dso_local void @_ZN9regmngobj17foundemptyregionsEv(%class.regmngobj* nocapture readonly %this) local_unnamed_addr #9 align 2 {
entry:
  %elemqu = getelementptr inbounds %class.regmngobj, %class.regmngobj* %this, i64 0, i32 18, i32 4
  %0 = load i32, i32* %elemqu, align 8, !tbaa !25
  %cmp13 = icmp sgt i32 %0, 0
  br i1 %cmp13, label %for.body.lr.ph, label %for.end

for.body.lr.ph:                                   ; preds = %entry
  %ep.i = getelementptr inbounds %class.regmngobj, %class.regmngobj* %this, i64 0, i32 18, i32 0
  %1 = load %class.regobj**, %class.regobj*** %ep.i, align 8, !tbaa !17
  %2 = zext i32 %0 to i64
  br label %for.body

for.body:                                         ; preds = %for.body.lr.ph, %for.inc
  %indvars.iv = phi i64 [ 0, %for.body.lr.ph ], [ %indvars.iv.next, %for.inc ]
  %arrayidx.i = getelementptr inbounds %class.regobj*, %class.regobj** %1, i64 %indvars.iv
  %3 = load %class.regobj*, %class.regobj** %arrayidx.i, align 8, !tbaa !26
  %square = getelementptr inbounds %class.regobj, %class.regobj* %3, i64 0, i32 4
  %4 = load i32, i32* %square, align 8, !tbaa !36
  %cmp3 = icmp eq i32 %4, 0
  br i1 %cmp3, label %if.then, label %for.inc

if.then:                                          ; preds = %for.body
  %flexist = getelementptr inbounds %class.regobj, %class.regobj* %3, i64 0, i32 1
  store i8 0, i8* %flexist, align 4, !tbaa !40
  br label %for.inc

for.inc:                                          ; preds = %for.body, %if.then
  %indvars.iv.next = add nuw nsw i64 %indvars.iv, 1
  %cmp = icmp ult i64 %indvars.iv.next, %2
  br i1 %cmp, label %for.body, label %for.end

for.end:                                          ; preds = %for.inc, %entry
  ret void
}

; Function Attrs: optsize
define dso_local %class.regobj* @_ZN9regmngobj9newregionEii(%class.regmngobj* %this, i32 %x0, i32 %y0) local_unnamed_addr #0 align 2 personality i8* bitcast (i32 (...)* @__gxx_personality_v0 to i8*) {
invoke.cont:
  %call = tail call dereferenceable(56) i8* @_Znwm(i64 56) #23
  %regmngp.i = getelementptr inbounds i8, i8* %call, i64 8
  %0 = bitcast i8* %regmngp.i to %class.regmngobj**
  store %class.regmngobj* %this, %class.regmngobj** %0, align 8, !tbaa !41
  %1 = ptrtoint i8* %call to i64
  %rarp = getelementptr inbounds %class.regmngobj, %class.regmngobj* %this, i64 0, i32 18
  %elemqu.i = getelementptr inbounds %class.regmngobj, %class.regmngobj* %this, i64 0, i32 18, i32 4
  %2 = load i32, i32* %elemqu.i, align 8, !tbaa !16
  %maxelemqu.i = getelementptr inbounds %class.regmngobj, %class.regmngobj* %this, i64 0, i32 18, i32 5
  %3 = load i32, i32* %maxelemqu.i, align 4, !tbaa !15
  %cmp.i = icmp eq i32 %2, %3
  br i1 %cmp.i, label %if.then.i, label %_ZN15largesolidarrayIP6regobjE3addERKS1_.exit

if.then.i:                                        ; preds = %invoke.cont
  tail call void @_ZN15largesolidarrayIP6regobjE8doublingEv(%class.largesolidarray* nonnull %rarp) #19
  %.pre.i = load i32, i32* %elemqu.i, align 8, !tbaa !16
  br label %_ZN15largesolidarrayIP6regobjE3addERKS1_.exit

_ZN15largesolidarrayIP6regobjE3addERKS1_.exit:    ; preds = %invoke.cont, %if.then.i
  %4 = phi i32 [ %.pre.i, %if.then.i ], [ %2, %invoke.cont ]
  %ep.i = getelementptr inbounds %class.largesolidarray, %class.largesolidarray* %rarp, i64 0, i32 0
  %5 = load %class.regobj**, %class.regobj*** %ep.i, align 8, !tbaa !17
  %idxprom.i = sext i32 %4 to i64
  %arrayidx.i = getelementptr inbounds %class.regobj*, %class.regobj** %5, i64 %idxprom.i
  %6 = bitcast %class.regobj** %arrayidx.i to i64*
  store i64 %1, i64* %6, align 8, !tbaa !26
  %elemqu.i.i = getelementptr inbounds %class.regmngobj, %class.regmngobj* %this, i64 0, i32 18, i32 1, i32 1
  %7 = load i32, i32* %elemqu.i.i, align 8, !tbaa !22
  %dec.i.i = add nsw i32 %7, -1
  store i32 %dec.i.i, i32* %elemqu.i.i, align 8, !tbaa !22
  %ep.i.i = getelementptr inbounds %class.regmngobj, %class.regmngobj* %this, i64 0, i32 18, i32 1, i32 0
  %8 = load i32*, i32** %ep.i.i, align 8, !tbaa !23
  %idxprom.i.i = sext i32 %dec.i.i to i64
  %arrayidx.i.i = getelementptr inbounds i32, i32* %8, i64 %idxprom.i.i
  %9 = load i32, i32* %arrayidx.i.i, align 4, !tbaa !24
  %ep4.i = getelementptr inbounds %class.regmngobj, %class.regmngobj* %this, i64 0, i32 18, i32 2, i32 0
  %10 = load i32*, i32** %ep4.i, align 8, !tbaa !42
  %idxprom5.i = sext i32 %9 to i64
  %arrayidx6.i = getelementptr inbounds i32, i32* %10, i64 %idxprom5.i
  store i32 %4, i32* %arrayidx6.i, align 4, !tbaa !24
  %ep7.i = getelementptr inbounds %class.regmngobj, %class.regmngobj* %this, i64 0, i32 18, i32 3, i32 0
  %11 = load i32*, i32** %ep7.i, align 8, !tbaa !43
  %12 = load i32, i32* %elemqu.i, align 8, !tbaa !16
  %idxprom9.i = sext i32 %12 to i64
  %arrayidx10.i = getelementptr inbounds i32, i32* %11, i64 %idxprom9.i
  store i32 %9, i32* %arrayidx10.i, align 4, !tbaa !24
  %13 = load i32, i32* %elemqu.i, align 8, !tbaa !16
  %inc.i = add nsw i32 %13, 1
  store i32 %inc.i, i32* %elemqu.i, align 8, !tbaa !16
  %14 = bitcast i8* %call to %class.regobj*
  %internalnum = bitcast i8* %call to i32*
  store i32 %9, i32* %internalnum, align 8, !tbaa !44
  tail call void @_ZN6regobj6createEii(%class.regobj* nonnull %14, i32 %x0, i32 %y0) #19
  ret %class.regobj* %14
}

declare dso_local i32 @__gxx_personality_v0(...)

; Function Attrs: nobuiltin nofree optsize
declare dso_local noalias nonnull i8* @_Znwm(i64) local_unnamed_addr #10

; Function Attrs: optsize
define linkonce_odr dso_local void @_ZN15largesolidarrayIP6regobjE8doublingEv(%class.largesolidarray* %this) local_unnamed_addr #0 comdat align 2 {
entry:
  %maxelemqu = getelementptr inbounds %class.largesolidarray, %class.largesolidarray* %this, i64 0, i32 5
  %0 = load i32, i32* %maxelemqu, align 4, !tbaa !15
  %shl = shl i32 %0, 1
  %conv = sext i32 %shl to i64
  %mul = shl nsw i64 %conv, 3
  %call = tail call noalias i8* @malloc(i64 %mul) #20
  %1 = bitcast %class.largesolidarray* %this to i8**
  %2 = load i8*, i8** %1, align 8, !tbaa !17
  %conv3 = sext i32 %0 to i64
  %mul4 = shl nsw i64 %conv3, 3
  tail call void @llvm.memcpy.p0i8.p0i8.i64(i8* align 8 %call, i8* align 8 %2, i64 %mul4, i1 false)
  tail call void @free(i8* %2) #20
  store i8* %call, i8** %1, align 8, !tbaa !17
  %dccellar = getelementptr inbounds %class.largesolidarray, %class.largesolidarray* %this, i64 0, i32 2
  tail call void @_ZN9flexarrayIiE8doublingEb(%class.flexstack* nonnull %dccellar, i1 true) #19
  %rccellar = getelementptr inbounds %class.largesolidarray, %class.largesolidarray* %this, i64 0, i32 3
  tail call void @_ZN9flexarrayIiE8doublingEb(%class.flexstack* nonnull %rccellar, i1 true) #19
  %3 = load i32, i32* %maxelemqu, align 4, !tbaa !15
  %cmp17 = icmp slt i32 %3, %shl
  br i1 %cmp17, label %for.body.lr.ph, label %for.end

for.body.lr.ph:                                   ; preds = %entry
  %freecellholder = getelementptr inbounds %class.largesolidarray, %class.largesolidarray* %this, i64 0, i32 1
  %elemqu.i = getelementptr inbounds %class.largesolidarray, %class.largesolidarray* %this, i64 0, i32 1, i32 1
  %maxelemqu.i = getelementptr inbounds %class.largesolidarray, %class.largesolidarray* %this, i64 0, i32 1, i32 2
  %ep.phi.trans.insert.i = getelementptr inbounds %class.flexstack, %class.flexstack* %freecellholder, i64 0, i32 0
  %4 = bitcast %class.flexstack* %freecellholder to i8**
  %.pre = load i32, i32* %elemqu.i, align 8, !tbaa !22
  br label %for.body

for.body:                                         ; preds = %_ZN9flexstackIiE3putEi.exit, %for.body.lr.ph
  %5 = phi i32 [ %.pre, %for.body.lr.ph ], [ %inc.i, %_ZN9flexstackIiE3putEi.exit ]
  %i.018 = phi i32 [ %3, %for.body.lr.ph ], [ %inc, %_ZN9flexstackIiE3putEi.exit ]
  %6 = load i32, i32* %maxelemqu.i, align 4, !tbaa !21
  %cmp.i = icmp eq i32 %5, %6
  br i1 %cmp.i, label %if.then.i, label %entry.if.end_crit_edge.i

entry.if.end_crit_edge.i:                         ; preds = %for.body
  %.pre.i = load i32*, i32** %ep.phi.trans.insert.i, align 8, !tbaa !23
  br label %_ZN9flexstackIiE3putEi.exit

if.then.i:                                        ; preds = %for.body
  %shl.i.i = shl i32 %5, 1
  %conv.i.i = sext i32 %shl.i.i to i64
  %mul.i.i = shl nsw i64 %conv.i.i, 2
  %call.i.i = tail call noalias i8* @malloc(i64 %mul.i.i) #20
  %7 = load i8*, i8** %4, align 8, !tbaa !23
  %conv3.i.i = sext i32 %5 to i64
  %mul4.i.i = shl nsw i64 %conv3.i.i, 2
  tail call void @llvm.memcpy.p0i8.p0i8.i64(i8* align 4 %call.i.i, i8* align 4 %7, i64 %mul4.i.i, i1 false) #21
  tail call void @free(i8* %7) #20
  store i8* %call.i.i, i8** %4, align 8, !tbaa !23
  store i32 %shl.i.i, i32* %maxelemqu.i, align 4, !tbaa !21
  %8 = bitcast i8* %call.i.i to i32*
  %.pre4.i = load i32, i32* %elemqu.i, align 8, !tbaa !22
  br label %_ZN9flexstackIiE3putEi.exit

_ZN9flexstackIiE3putEi.exit:                      ; preds = %entry.if.end_crit_edge.i, %if.then.i
  %9 = phi i32 [ %5, %entry.if.end_crit_edge.i ], [ %.pre4.i, %if.then.i ]
  %10 = phi i32* [ %.pre.i, %entry.if.end_crit_edge.i ], [ %8, %if.then.i ]
  %idxprom.i = sext i32 %9 to i64
  %arrayidx.i = getelementptr inbounds i32, i32* %10, i64 %idxprom.i
  store i32 %i.018, i32* %arrayidx.i, align 4, !tbaa !24
  %11 = load i32, i32* %elemqu.i, align 8, !tbaa !22
  %inc.i = add nsw i32 %11, 1
  store i32 %inc.i, i32* %elemqu.i, align 8, !tbaa !22
  %inc = add i32 %i.018, 1
  %exitcond = icmp eq i32 %inc, %shl
  br i1 %exitcond, label %for.end, label %for.body

for.end:                                          ; preds = %_ZN9flexstackIiE3putEi.exit, %entry
  store i32 %shl, i32* %maxelemqu, align 4, !tbaa !15
  ret void
}

; Function Attrs: nounwind optsize
define linkonce_odr dso_local void @_ZN9flexarrayIiE8doublingEb(%class.flexstack* %this, i1 %flcopy) local_unnamed_addr #8 comdat align 2 {
entry:
  %maxelemqu = getelementptr inbounds %class.flexstack, %class.flexstack* %this, i64 0, i32 2
  %0 = load i32, i32* %maxelemqu, align 4, !tbaa !18
  %shl = shl i32 %0, 1
  %mul = shl i32 %0, 3
  %conv.i = sext i32 %mul to i64
  %call.i = tail call noalias i8* @malloc(i64 %conv.i) #20
  %1 = bitcast %class.flexstack* %this to i8**
  %2 = load i8*, i8** %1, align 8, !tbaa !20
  br i1 %flcopy, label %if.then, label %if.end

if.then:                                          ; preds = %entry
  %conv4 = sext i32 %0 to i64
  %mul5 = shl nsw i64 %conv4, 2
  tail call void @llvm.memcpy.p0i8.p0i8.i64(i8* align 4 %call.i, i8* align 4 %2, i64 %mul5, i1 false)
  br label %if.end

if.end:                                           ; preds = %entry, %if.then
  tail call void @free(i8* %2) #20
  store i8* %call.i, i8** %1, align 8, !tbaa !20
  store i32 %shl, i32* %maxelemqu, align 4, !tbaa !18
  ret void
}

; Function Attrs: optsize
define dso_local void @_ZN9regmngobj13deleteregionsEv(%class.regmngobj* %this) local_unnamed_addr #0 align 2 {
entry:
  %call.i.i = tail call noalias dereferenceable_or_null(128) i8* @malloc(i64 128) #20
  %0 = bitcast i8* %call.i.i to %class.regobj**
  %rarp = getelementptr inbounds %class.regmngobj, %class.regmngobj* %this, i64 0, i32 18
  %elemqu = getelementptr inbounds %class.regmngobj, %class.regmngobj* %this, i64 0, i32 18, i32 4
  %1 = load i32, i32* %elemqu, align 8, !tbaa !25
  %cmp58 = icmp sgt i32 %1, 0
  br i1 %cmp58, label %for.body.lr.ph, label %for.end16

for.body.lr.ph:                                   ; preds = %entry
  %ep.i = getelementptr inbounds %class.largesolidarray, %class.largesolidarray* %rarp, i64 0, i32 0
  br label %for.body

for.cond6.preheader:                              ; preds = %for.inc
  %cmp856 = icmp sgt i32 %deletedregions.sroa.10.1, 0
  br i1 %cmp856, label %for.body9.preheader, label %for.end16

for.body9.preheader:                              ; preds = %for.cond6.preheader
  %wide.trip.count = zext i32 %deletedregions.sroa.10.1 to i64
  br label %for.body9

for.body:                                         ; preds = %for.body.lr.ph, %for.inc
  %.pre6768 = phi i32 [ %1, %for.body.lr.ph ], [ %.pre6769, %for.inc ]
  %2 = phi i32 [ %1, %for.body.lr.ph ], [ %11, %for.inc ]
  %indvars.iv65 = phi i64 [ 0, %for.body.lr.ph ], [ %indvars.iv.next66, %for.inc ]
  %deletedregions.sroa.0.061 = phi %class.regobj** [ %0, %for.body.lr.ph ], [ %deletedregions.sroa.0.2, %for.inc ]
  %deletedregions.sroa.10.060 = phi i32 [ 0, %for.body.lr.ph ], [ %deletedregions.sroa.10.1, %for.inc ]
  %deletedregions.sroa.15.059 = phi i32 [ 16, %for.body.lr.ph ], [ %deletedregions.sroa.15.2, %for.inc ]
  %3 = load %class.regobj**, %class.regobj*** %ep.i, align 8, !tbaa !17
  %arrayidx.i = getelementptr inbounds %class.regobj*, %class.regobj** %3, i64 %indvars.iv65
  %4 = load %class.regobj*, %class.regobj** %arrayidx.i, align 8, !tbaa !26
  %flexist = getelementptr inbounds %class.regobj, %class.regobj* %4, i64 0, i32 1
  %5 = load i8, i8* %flexist, align 4, !tbaa !40, !range !45
  %cmp3 = icmp eq i8 %5, 0
  %6 = ptrtoint %class.regobj* %4 to i64
  br i1 %cmp3, label %if.then, label %for.inc

if.then:                                          ; preds = %for.body
  %cmp.i = icmp eq i32 %deletedregions.sroa.10.060, %deletedregions.sroa.15.059
  br i1 %cmp.i, label %if.then.i, label %if.then._ZN9flexarrayIP6regobjE3addERKS1_.exit_crit_edge

if.then._ZN9flexarrayIP6regobjE3addERKS1_.exit_crit_edge: ; preds = %if.then
  %.pre72 = sext i32 %deletedregions.sroa.10.060 to i64
  br label %_ZN9flexarrayIP6regobjE3addERKS1_.exit

if.then.i:                                        ; preds = %if.then
  %shl.i = shl i32 %deletedregions.sroa.10.060, 1
  %mul.i = shl i32 %deletedregions.sroa.10.060, 4
  %conv.i.i = sext i32 %mul.i to i64
  %call.i.i41 = tail call noalias i8* @malloc(i64 %conv.i.i) #20
  %7 = bitcast %class.regobj** %deletedregions.sroa.0.061 to i8*
  %conv4.i = sext i32 %deletedregions.sroa.10.060 to i64
  %mul5.i = shl nsw i64 %conv4.i, 3
  tail call void @llvm.memcpy.p0i8.p0i8.i64(i8* align 8 %call.i.i41, i8* align 8 %7, i64 %mul5.i, i1 false) #21
  tail call void @free(i8* %7) #20
  %8 = bitcast i8* %call.i.i41 to %class.regobj**
  %.phi.trans.insert = bitcast %class.regobj** %arrayidx.i to i64*
  %.pre = load i64, i64* %.phi.trans.insert, align 8, !tbaa !26
  %.pre67.pre = load i32, i32* %elemqu, align 8, !tbaa !25
  br label %_ZN9flexarrayIP6regobjE3addERKS1_.exit

_ZN9flexarrayIP6regobjE3addERKS1_.exit:           ; preds = %if.then._ZN9flexarrayIP6regobjE3addERKS1_.exit_crit_edge, %if.then.i
  %idxprom.i38.pre-phi = phi i64 [ %.pre72, %if.then._ZN9flexarrayIP6regobjE3addERKS1_.exit_crit_edge ], [ %conv4.i, %if.then.i ]
  %.pre67 = phi i32 [ %.pre6768, %if.then._ZN9flexarrayIP6regobjE3addERKS1_.exit_crit_edge ], [ %.pre67.pre, %if.then.i ]
  %9 = phi i64 [ %6, %if.then._ZN9flexarrayIP6regobjE3addERKS1_.exit_crit_edge ], [ %.pre, %if.then.i ]
  %deletedregions.sroa.15.1 = phi i32 [ %deletedregions.sroa.15.059, %if.then._ZN9flexarrayIP6regobjE3addERKS1_.exit_crit_edge ], [ %shl.i, %if.then.i ]
  %deletedregions.sroa.0.1 = phi %class.regobj** [ %deletedregions.sroa.0.061, %if.then._ZN9flexarrayIP6regobjE3addERKS1_.exit_crit_edge ], [ %8, %if.then.i ]
  %arrayidx.i39 = getelementptr inbounds %class.regobj*, %class.regobj** %deletedregions.sroa.0.1, i64 %idxprom.i38.pre-phi
  %10 = bitcast %class.regobj** %arrayidx.i39 to i64*
  store i64 %9, i64* %10, align 8, !tbaa !26
  %inc.i = add nsw i32 %deletedregions.sroa.10.060, 1
  br label %for.inc

for.inc:                                          ; preds = %for.body, %_ZN9flexarrayIP6regobjE3addERKS1_.exit
  %.pre6769 = phi i32 [ %.pre67, %_ZN9flexarrayIP6regobjE3addERKS1_.exit ], [ %.pre6768, %for.body ]
  %11 = phi i32 [ %.pre67, %_ZN9flexarrayIP6regobjE3addERKS1_.exit ], [ %2, %for.body ]
  %deletedregions.sroa.15.2 = phi i32 [ %deletedregions.sroa.15.1, %_ZN9flexarrayIP6regobjE3addERKS1_.exit ], [ %deletedregions.sroa.15.059, %for.body ]
  %deletedregions.sroa.10.1 = phi i32 [ %inc.i, %_ZN9flexarrayIP6regobjE3addERKS1_.exit ], [ %deletedregions.sroa.10.060, %for.body ]
  %deletedregions.sroa.0.2 = phi %class.regobj** [ %deletedregions.sroa.0.1, %_ZN9flexarrayIP6regobjE3addERKS1_.exit ], [ %deletedregions.sroa.0.061, %for.body ]
  %indvars.iv.next66 = add nuw nsw i64 %indvars.iv65, 1
  %12 = sext i32 %11 to i64
  %cmp = icmp slt i64 %indvars.iv.next66, %12
  br i1 %cmp, label %for.body, label %for.cond6.preheader

for.body9:                                        ; preds = %for.inc14, %for.body9.preheader
  %indvars.iv = phi i64 [ 0, %for.body9.preheader ], [ %indvars.iv.next, %for.inc14 ]
  %arrayidx.i45 = getelementptr inbounds %class.regobj*, %class.regobj** %deletedregions.sroa.0.2, i64 %indvars.iv
  %13 = load %class.regobj*, %class.regobj** %arrayidx.i45, align 8, !tbaa !26
  %internalnum = getelementptr inbounds %class.regobj, %class.regobj* %13, i64 0, i32 0
  %14 = load i32, i32* %internalnum, align 8, !tbaa !44
  tail call void @_ZN15largesolidarrayIP6regobjE6removeEi(%class.largesolidarray* nonnull %rarp, i32 %14) #19
  %15 = load %class.regobj*, %class.regobj** %arrayidx.i45, align 8, !tbaa !26
  tail call void @_ZN6regobj7destroyEv(%class.regobj* %15) #19
  %16 = load %class.regobj*, %class.regobj** %arrayidx.i45, align 8, !tbaa !26
  %isnull = icmp eq %class.regobj* %16, null
  br i1 %isnull, label %for.inc14, label %delete.notnull

delete.notnull:                                   ; preds = %for.body9
  %17 = bitcast %class.regobj* %16 to i8*
  tail call void @_ZdlPv(i8* %17) #22
  br label %for.inc14

for.inc14:                                        ; preds = %for.body9, %delete.notnull
  %indvars.iv.next = add nuw nsw i64 %indvars.iv, 1
  %exitcond = icmp eq i64 %indvars.iv.next, %wide.trip.count
  br i1 %exitcond, label %for.end16, label %for.body9

for.end16:                                        ; preds = %for.inc14, %entry, %for.cond6.preheader
  %deletedregions.sroa.0.0.lcssa76 = phi %class.regobj** [ %deletedregions.sroa.0.2, %for.cond6.preheader ], [ %0, %entry ], [ %deletedregions.sroa.0.2, %for.inc14 ]
  %18 = bitcast %class.regobj** %deletedregions.sroa.0.0.lcssa76 to i8*
  tail call void @free(i8* %18) #20
  ret void
}

; Function Attrs: optsize
define linkonce_odr dso_local void @_ZN15largesolidarrayIP6regobjE6removeEi(%class.largesolidarray* %this, i32 %ecellnum) local_unnamed_addr #0 comdat align 2 {
entry:
  %ep = getelementptr inbounds %class.largesolidarray, %class.largesolidarray* %this, i64 0, i32 2, i32 0
  %0 = load i32*, i32** %ep, align 8, !tbaa !42
  %idxprom = sext i32 %ecellnum to i64
  %arrayidx = getelementptr inbounds i32, i32* %0, i64 %idxprom
  %1 = load i32, i32* %arrayidx, align 4, !tbaa !24
  %elemqu = getelementptr inbounds %class.largesolidarray, %class.largesolidarray* %this, i64 0, i32 4
  %2 = load i32, i32* %elemqu, align 8, !tbaa !16
  %sub = add nsw i32 %2, -1
  %cmp = icmp eq i32 %1, %sub
  br i1 %cmp, label %if.end, label %if.then

if.then:                                          ; preds = %entry
  %ep2 = getelementptr inbounds %class.largesolidarray, %class.largesolidarray* %this, i64 0, i32 0
  %3 = load %class.regobj**, %class.regobj*** %ep2, align 8, !tbaa !17
  %idxprom5 = sext i32 %sub to i64
  %arrayidx6 = getelementptr inbounds %class.regobj*, %class.regobj** %3, i64 %idxprom5
  %4 = bitcast %class.regobj** %arrayidx6 to i64*
  %5 = load i64, i64* %4, align 8, !tbaa !26
  %idxprom8 = sext i32 %1 to i64
  %arrayidx9 = getelementptr inbounds %class.regobj*, %class.regobj** %3, i64 %idxprom8
  %6 = bitcast %class.regobj** %arrayidx9 to i64*
  store i64 %5, i64* %6, align 8, !tbaa !26
  %7 = load i32*, i32** %ep, align 8, !tbaa !42
  %ep12 = getelementptr inbounds %class.largesolidarray, %class.largesolidarray* %this, i64 0, i32 3, i32 0
  %8 = load i32*, i32** %ep12, align 8, !tbaa !43
  %arrayidx16 = getelementptr inbounds i32, i32* %8, i64 %idxprom5
  %9 = load i32, i32* %arrayidx16, align 4, !tbaa !24
  %idxprom17 = sext i32 %9 to i64
  %arrayidx18 = getelementptr inbounds i32, i32* %7, i64 %idxprom17
  store i32 %1, i32* %arrayidx18, align 4, !tbaa !24
  %10 = load i32, i32* %elemqu, align 8, !tbaa !16
  %sub22 = add nsw i32 %10, -1
  %idxprom23 = sext i32 %sub22 to i64
  %arrayidx24 = getelementptr inbounds i32, i32* %8, i64 %idxprom23
  %11 = load i32, i32* %arrayidx24, align 4, !tbaa !24
  %arrayidx28 = getelementptr inbounds i32, i32* %8, i64 %idxprom8
  store i32 %11, i32* %arrayidx28, align 4, !tbaa !24
  br label %if.end

if.end:                                           ; preds = %entry, %if.then
  %freecellholder = getelementptr inbounds %class.largesolidarray, %class.largesolidarray* %this, i64 0, i32 1
  %elemqu.i = getelementptr inbounds %class.largesolidarray, %class.largesolidarray* %this, i64 0, i32 1, i32 1
  %12 = load i32, i32* %elemqu.i, align 8, !tbaa !22
  %maxelemqu.i = getelementptr inbounds %class.largesolidarray, %class.largesolidarray* %this, i64 0, i32 1, i32 2
  %13 = load i32, i32* %maxelemqu.i, align 4, !tbaa !21
  %cmp.i = icmp eq i32 %12, %13
  br i1 %cmp.i, label %if.then.i, label %entry.if.end_crit_edge.i

entry.if.end_crit_edge.i:                         ; preds = %if.end
  %ep.phi.trans.insert.i = getelementptr inbounds %class.flexstack, %class.flexstack* %freecellholder, i64 0, i32 0
  %.pre.i = load i32*, i32** %ep.phi.trans.insert.i, align 8, !tbaa !23
  br label %_ZN9flexstackIiE3putEi.exit

if.then.i:                                        ; preds = %if.end
  %shl.i.i = shl i32 %12, 1
  %conv.i.i = sext i32 %shl.i.i to i64
  %mul.i.i = shl nsw i64 %conv.i.i, 2
  %call.i.i = tail call noalias i8* @malloc(i64 %mul.i.i) #20
  %14 = bitcast %class.flexstack* %freecellholder to i8**
  %15 = load i8*, i8** %14, align 8, !tbaa !23
  %conv3.i.i = sext i32 %12 to i64
  %mul4.i.i = shl nsw i64 %conv3.i.i, 2
  tail call void @llvm.memcpy.p0i8.p0i8.i64(i8* align 4 %call.i.i, i8* align 4 %15, i64 %mul4.i.i, i1 false) #21
  tail call void @free(i8* %15) #20
  store i8* %call.i.i, i8** %14, align 8, !tbaa !23
  store i32 %shl.i.i, i32* %maxelemqu.i, align 4, !tbaa !21
  %16 = bitcast i8* %call.i.i to i32*
  %.pre4.i = load i32, i32* %elemqu.i, align 8, !tbaa !22
  br label %_ZN9flexstackIiE3putEi.exit

_ZN9flexstackIiE3putEi.exit:                      ; preds = %entry.if.end_crit_edge.i, %if.then.i
  %17 = phi i32 [ %12, %entry.if.end_crit_edge.i ], [ %.pre4.i, %if.then.i ]
  %18 = phi i32* [ %.pre.i, %entry.if.end_crit_edge.i ], [ %16, %if.then.i ]
  %idxprom.i = sext i32 %17 to i64
  %arrayidx.i = getelementptr inbounds i32, i32* %18, i64 %idxprom.i
  store i32 %ecellnum, i32* %arrayidx.i, align 4, !tbaa !24
  %19 = load i32, i32* %elemqu.i, align 8, !tbaa !22
  %inc.i = add nsw i32 %19, 1
  store i32 %inc.i, i32* %elemqu.i, align 8, !tbaa !22
  %20 = load i32, i32* %elemqu, align 8, !tbaa !16
  %dec = add nsw i32 %20, -1
  store i32 %dec, i32* %elemqu, align 8, !tbaa !16
  ret void
}

; Function Attrs: optsize
define dso_local void @_ZN9regmngobj13defineregionsEv(%class.regmngobj* %this) local_unnamed_addr #0 align 2 personality i8* bitcast (i32 (...)* @__gxx_personality_v0 to i8*) {
entry:
  %x = alloca i32, align 4
  %y = alloca i32, align 4
  %0 = bitcast i32* %x to i8*
  call void @llvm.lifetime.start.p0i8(i64 4, i8* nonnull %0) #21
  %1 = bitcast i32* %y to i8*
  call void @llvm.lifetime.start.p0i8(i64 4, i8* nonnull %1) #21
  %call.i.i = tail call noalias dereferenceable_or_null(1792) i8* @malloc(i64 1792) #20
  %2 = bitcast i8* %call.i.i to %class.regboundobj*
  %mapmaxx = getelementptr inbounds %class.regmngobj, %class.regmngobj* %this, i64 0, i32 12
  %3 = load i32, i32* %mapmaxx, align 4, !tbaa !32
  %conv = sitofp i32 %3 to float
  %div = fdiv float %conv, 6.200000e+02
  %mul = fmul float %div, 3.400000e+01
  %radiuscoef = getelementptr inbounds %class.regmngobj, %class.regmngobj* %this, i64 0, i32 11
  %4 = load float, float* %radiuscoef, align 8, !tbaa !46
  %div2 = fdiv float %mul, %4
  %add.i = fadd float %div2, 5.000000e-01
  %conv.i = fptosi float %add.i to i32
  %mapmaxy = getelementptr inbounds %class.regmngobj, %class.regmngobj* %this, i64 0, i32 13
  %5 = load i32, i32* %mapmaxy, align 8, !tbaa !33
  %conv3 = sitofp i32 %5 to float
  %div4 = fdiv float %conv3, 3.090000e+02
  %mul5 = fmul float %div4, 2.000000e+01
  %div7 = fdiv float %mul5, %4
  %add.i134 = fadd float %div7, 5.000000e-01
  %conv.i135 = fptosi float %add.i134 to i32
  %add = add nsw i32 %3, 1
  %conv10 = sitofp i32 %add to float
  %conv11 = sitofp i32 %conv.i to float
  %div12 = fdiv float %conv10, %conv11
  %add.i141 = fadd float %div12, 5.000000e-01
  %conv.i142 = fptosi float %add.i141 to i32
  %add15 = add nsw i32 %5, 1
  %conv16 = sitofp i32 %add15 to float
  %conv17 = sitofp i32 %conv.i135 to float
  %div18 = fdiv float %conv16, %conv17
  %mul20 = fmul float %div18, 0x3FFBB67AE0000000
  %div21 = fmul float %mul20, 5.000000e-01
  %add.i150 = fadd float %div21, 5.000000e-01
  %conv.i151 = fptosi float %add.i150 to i32
  %div25 = sdiv i32 %conv.i142, 2
  %div28 = sdiv i32 %conv.i151, 2
  %regionmapp.i = getelementptr inbounds %class.regmngobj, %class.regmngobj* %this, i64 0, i32 6
  %mapsizex.i = getelementptr inbounds %class.regmngobj, %class.regmngobj* %this, i64 0, i32 16
  %rarp = getelementptr inbounds %class.regmngobj, %class.regmngobj* %this, i64 0, i32 18
  %elemqu.i156 = getelementptr inbounds %class.regmngobj, %class.regmngobj* %this, i64 0, i32 18, i32 4
  %maxelemqu.i157 = getelementptr inbounds %class.regmngobj, %class.regmngobj* %this, i64 0, i32 18, i32 5
  %ep.i161 = getelementptr inbounds %class.largesolidarray, %class.largesolidarray* %rarp, i64 0, i32 0
  %elemqu.i.i = getelementptr inbounds %class.regmngobj, %class.regmngobj* %this, i64 0, i32 18, i32 1, i32 1
  %ep.i.i = getelementptr inbounds %class.regmngobj, %class.regmngobj* %this, i64 0, i32 18, i32 1, i32 0
  %ep4.i = getelementptr inbounds %class.regmngobj, %class.regmngobj* %this, i64 0, i32 18, i32 2, i32 0
  %ep7.i = getelementptr inbounds %class.regmngobj, %class.regmngobj* %this, i64 0, i32 18, i32 3, i32 0
  %sub = add nsw i32 %conv.i, -1
  %mul62 = fmul float %conv17, 2.000000e+00
  %div64 = fdiv float %mul62, 0x3FFBB67AE0000000
  %add.i139 = fadd float %div64, 5.000000e-01
  %conv.i140 = fptosi float %add.i139 to i32
  %add66 = add nsw i32 %conv.i140, 3
  br label %do.body

do.body:                                          ; preds = %next, %entry
  %rboundarp.sroa.10.0 = phi i32 [ 0, %entry ], [ %rboundarp.sroa.10.1, %next ]
  %rboundarp.sroa.0.0 = phi %class.regboundobj* [ %2, %entry ], [ %rboundarp.sroa.0.2, %next ]
  %rboundarp.sroa.16.0 = phi i32 [ 16, %entry ], [ %rboundarp.sroa.16.2, %next ]
  %i2.0 = phi i32 [ 0, %entry ], [ %i2.1, %next ]
  %i1.0 = phi i32 [ 0, %entry ], [ %i1.1, %next ]
  %and = and i32 %i2.0, 1
  %tobool = icmp ne i32 %and, 0
  %mul23 = mul nsw i32 %i1.0, %conv.i142
  %xx.0.v = select i1 %tobool, i32 %conv.i142, i32 %div25
  %xx.0 = add nsw i32 %mul23, %xx.0.v
  %mul29 = mul nsw i32 %i2.0, %conv.i151
  %add30 = add nsw i32 %mul29, %div28
  %call31 = call i1 @_ZN9regmngobj13findfreeplaceEiiRiS0_(%class.regmngobj* %this, i32 %xx.0, i32 %add30, i32* nonnull dereferenceable(4) %x, i32* nonnull dereferenceable(4) %y) #19
  br i1 %call31, label %if.else34, label %next

if.else34:                                        ; preds = %do.body
  %6 = load i32, i32* %x, align 4, !tbaa !24
  %7 = load i32, i32* %y, align 4, !tbaa !24
  %8 = load %class.regobj**, %class.regobj*** %regionmapp.i, align 8, !tbaa !27
  %9 = load i32, i32* %mapsizex.i, align 4, !tbaa !30
  %mul.i152 = mul nsw i32 %9, %7
  %add.i153 = add nsw i32 %mul.i152, %6
  %idxprom.i154 = sext i32 %add.i153 to i64
  %arrayidx.i155 = getelementptr inbounds %class.regobj*, %class.regobj** %8, i64 %idxprom.i154
  %10 = load %class.regobj*, %class.regobj** %arrayidx.i155, align 8, !tbaa !26
  %tobool36 = icmp eq %class.regobj* %10, null
  br i1 %tobool36, label %invoke.cont, label %next

invoke.cont:                                      ; preds = %if.else34
  %call40 = call dereferenceable(56) i8* @_Znwm(i64 56) #23
  %regmngp.i = getelementptr inbounds i8, i8* %call40, i64 8
  %11 = bitcast i8* %regmngp.i to %class.regmngobj**
  store %class.regmngobj* %this, %class.regmngobj** %11, align 8, !tbaa !41
  %12 = ptrtoint i8* %call40 to i64
  %13 = load i32, i32* %elemqu.i156, align 8, !tbaa !16
  %14 = load i32, i32* %maxelemqu.i157, align 4, !tbaa !15
  %cmp.i158 = icmp eq i32 %13, %14
  br i1 %cmp.i158, label %if.then.i160, label %_ZN15largesolidarrayIP6regobjE3addERKS1_.exit

if.then.i160:                                     ; preds = %invoke.cont
  call void @_ZN15largesolidarrayIP6regobjE8doublingEv(%class.largesolidarray* nonnull %rarp) #19
  %.pre.i159 = load i32, i32* %elemqu.i156, align 8, !tbaa !16
  br label %_ZN15largesolidarrayIP6regobjE3addERKS1_.exit

_ZN15largesolidarrayIP6regobjE3addERKS1_.exit:    ; preds = %invoke.cont, %if.then.i160
  %15 = phi i32 [ %.pre.i159, %if.then.i160 ], [ %13, %invoke.cont ]
  %16 = load %class.regobj**, %class.regobj*** %ep.i161, align 8, !tbaa !17
  %idxprom.i162 = sext i32 %15 to i64
  %arrayidx.i163 = getelementptr inbounds %class.regobj*, %class.regobj** %16, i64 %idxprom.i162
  %17 = bitcast %class.regobj** %arrayidx.i163 to i64*
  store i64 %12, i64* %17, align 8, !tbaa !26
  %18 = load i32, i32* %elemqu.i.i, align 8, !tbaa !22
  %dec.i.i = add nsw i32 %18, -1
  store i32 %dec.i.i, i32* %elemqu.i.i, align 8, !tbaa !22
  %19 = load i32*, i32** %ep.i.i, align 8, !tbaa !23
  %idxprom.i.i = sext i32 %dec.i.i to i64
  %arrayidx.i.i = getelementptr inbounds i32, i32* %19, i64 %idxprom.i.i
  %20 = load i32, i32* %arrayidx.i.i, align 4, !tbaa !24
  %21 = load i32*, i32** %ep4.i, align 8, !tbaa !42
  %idxprom5.i = sext i32 %20 to i64
  %arrayidx6.i = getelementptr inbounds i32, i32* %21, i64 %idxprom5.i
  store i32 %15, i32* %arrayidx6.i, align 4, !tbaa !24
  %22 = load i32*, i32** %ep7.i, align 8, !tbaa !43
  %23 = load i32, i32* %elemqu.i156, align 8, !tbaa !16
  %idxprom9.i = sext i32 %23 to i64
  %arrayidx10.i = getelementptr inbounds i32, i32* %22, i64 %idxprom9.i
  store i32 %20, i32* %arrayidx10.i, align 4, !tbaa !24
  %24 = load i32, i32* %elemqu.i156, align 8, !tbaa !16
  %inc.i164 = add nsw i32 %24, 1
  store i32 %inc.i164, i32* %elemqu.i156, align 8, !tbaa !16
  %25 = bitcast i8* %call40 to %class.regobj*
  %internalnum = bitcast i8* %call40 to i32*
  store i32 %20, i32* %internalnum, align 8, !tbaa !44
  call void @_ZN6regobj6createEv(%class.regobj* nonnull %25) #19
  %26 = getelementptr inbounds i8, i8* %call40, i64 4
  store i8 1, i8* %26, align 4, !tbaa !40
  %27 = load i32, i32* %x, align 4, !tbaa !24
  %x42 = getelementptr inbounds i8, i8* %call40, i64 20
  %28 = bitcast i8* %x42 to i32*
  store i32 %27, i32* %28, align 4, !tbaa !47
  %29 = load i32, i32* %y, align 4, !tbaa !24
  %y44 = getelementptr inbounds i8, i8* %call40, i64 24
  %30 = bitcast i8* %y44 to i32*
  store i32 %29, i32* %30, align 4, !tbaa !48
  %cmp.i = icmp eq i32 %rboundarp.sroa.10.0, %rboundarp.sroa.16.0
  br i1 %cmp.i, label %if.then.i, label %_ZN9flexarrayI11regboundobjE3addEv.exit

if.then.i:                                        ; preds = %_ZN15largesolidarrayIP6regobjE3addERKS1_.exit
  %shl.i = shl i32 %rboundarp.sroa.10.0, 1
  %mul.i = mul i32 %rboundarp.sroa.10.0, 224
  %conv.i.i = sext i32 %mul.i to i64
  %call.i.i147 = call noalias i8* @malloc(i64 %conv.i.i) #20
  %31 = bitcast %class.regboundobj* %rboundarp.sroa.0.0 to i8*
  %conv4.i = sext i32 %rboundarp.sroa.10.0 to i64
  %mul5.i = mul nsw i64 %conv4.i, 112
  call void @llvm.memcpy.p0i8.p0i8.i64(i8* align 8 %call.i.i147, i8* align 8 %31, i64 %mul5.i, i1 false) #21
  call void @free(i8* %31) #20
  %32 = bitcast i8* %call.i.i147 to %class.regboundobj*
  %.pre = load i32, i32* %x, align 4, !tbaa !24
  %.pre189 = load i32, i32* %y, align 4, !tbaa !24
  br label %_ZN9flexarrayI11regboundobjE3addEv.exit

_ZN9flexarrayI11regboundobjE3addEv.exit:          ; preds = %_ZN15largesolidarrayIP6regobjE3addERKS1_.exit, %if.then.i
  %33 = phi i32 [ %.pre189, %if.then.i ], [ %29, %_ZN15largesolidarrayIP6regobjE3addERKS1_.exit ]
  %34 = phi i32 [ %.pre, %if.then.i ], [ %27, %_ZN15largesolidarrayIP6regobjE3addERKS1_.exit ]
  %rboundarp.sroa.0.1 = phi %class.regboundobj* [ %32, %if.then.i ], [ %rboundarp.sroa.0.0, %_ZN15largesolidarrayIP6regobjE3addERKS1_.exit ]
  %rboundarp.sroa.16.1 = phi i32 [ %shl.i, %if.then.i ], [ %rboundarp.sroa.16.0, %_ZN15largesolidarrayIP6regobjE3addERKS1_.exit ]
  %inc.i = add nsw i32 %rboundarp.sroa.10.0, 1
  %idx.ext.i = sext i32 %inc.i to i64
  %add.ptr.i = getelementptr inbounds %class.regboundobj, %class.regboundobj* %rboundarp.sroa.0.1, i64 -1
  %add.ptr4.i = getelementptr inbounds %class.regboundobj, %class.regboundobj* %add.ptr.i, i64 %idx.ext.i
  %flexist46 = getelementptr inbounds %class.regboundobj, %class.regboundobj* %add.ptr4.i, i64 0, i32 17
  store i8 1, i8* %flexist46, align 8, !tbaa !49
  call void @_ZN11regboundobj9firststepEiiP6regobjP9regmngobj(%class.regboundobj* nonnull %add.ptr4.i, i32 %34, i32 %33, %class.regobj* nonnull %25, %class.regmngobj* nonnull %this) #19
  br label %next

next:                                             ; preds = %if.else34, %do.body, %_ZN9flexarrayI11regboundobjE3addEv.exit
  %rboundarp.sroa.10.1 = phi i32 [ %inc.i, %_ZN9flexarrayI11regboundobjE3addEv.exit ], [ %rboundarp.sroa.10.0, %if.else34 ], [ %rboundarp.sroa.10.0, %do.body ]
  %rboundarp.sroa.0.2 = phi %class.regboundobj* [ %rboundarp.sroa.0.1, %_ZN9flexarrayI11regboundobjE3addEv.exit ], [ %rboundarp.sroa.0.0, %if.else34 ], [ %rboundarp.sroa.0.0, %do.body ]
  %rboundarp.sroa.16.2 = phi i32 [ %rboundarp.sroa.16.1, %_ZN9flexarrayI11regboundobjE3addEv.exit ], [ %rboundarp.sroa.16.0, %if.else34 ], [ %rboundarp.sroa.16.0, %do.body ]
  %add47 = add nsw i32 %i1.0, 1
  %cmp51 = icmp eq i32 %add47, %sub
  %spec.select130 = select i1 %cmp51, i32 0, i32 %add47
  %cmp56 = icmp eq i32 %add47, %conv.i
  %spec.select132 = select i1 %cmp56, i32 0, i32 %add47
  %add53.pn.in = select i1 %tobool, i1 %cmp51, i1 %cmp56
  %i1.1 = select i1 %tobool, i32 %spec.select130, i32 %spec.select132
  %add53.pn = zext i1 %add53.pn.in to i32
  %i2.1 = add nuw nsw i32 %i2.0, %add53.pn
  %cmp67 = icmp slt i32 %i2.1, %add66
  br i1 %cmp67, label %do.body, label %do.body68.preheader

do.body68.preheader:                              ; preds = %next
  %cmp69186 = icmp sgt i32 %rboundarp.sroa.10.1, 0
  br i1 %cmp69186, label %for.body, label %for.end88

for.body:                                         ; preds = %do.body68.preheader, %for.body
  %i.0188 = phi i32 [ %inc.mux, %for.body ], [ 0, %do.body68.preheader ]
  %fldone.0.off0187 = phi i1 [ %spec.select133.mux, %for.body ], [ true, %do.body68.preheader ]
  %idxprom.i137 = zext i32 %i.0188 to i64
  %arrayidx.i138 = getelementptr inbounds %class.regboundobj, %class.regboundobj* %rboundarp.sroa.0.2, i64 %idxprom.i137
  %call71 = call i1 @_ZN11regboundobj4stepEv(%class.regboundobj* nonnull %arrayidx.i138) #19
  %not.call71 = xor i1 %call71, true
  %spec.select133 = and i1 %fldone.0.off0187, %not.call71
  %inc = add nuw nsw i32 %i.0188, 1
  %cmp69 = icmp slt i32 %inc, %rboundarp.sroa.10.1
  %spec.select133.not = xor i1 %spec.select133, true
  %brmerge = or i1 %cmp69, %spec.select133.not
  %inc.mux = select i1 %cmp69, i32 %inc, i32 0
  %not.cmp69 = xor i1 %cmp69, true
  %spec.select133.mux = or i1 %spec.select133, %not.cmp69
  br i1 %brmerge, label %for.body, label %for.cond81.preheader

for.cond81.preheader:                             ; preds = %for.body
  br i1 %cmp69186, label %for.body84.preheader, label %for.end88

for.body84.preheader:                             ; preds = %for.cond81.preheader
  %wide.trip.count = zext i32 %rboundarp.sroa.10.1 to i64
  br label %for.body84

for.body84:                                       ; preds = %for.body84, %for.body84.preheader
  %indvars.iv = phi i64 [ 0, %for.body84.preheader ], [ %indvars.iv.next, %for.body84 ]
  %arrayidx.i = getelementptr inbounds %class.regboundobj, %class.regboundobj* %rboundarp.sroa.0.2, i64 %indvars.iv
  call void @_ZN11regboundobj7destroyEv(%class.regboundobj* nonnull %arrayidx.i) #19
  %indvars.iv.next = add nuw nsw i64 %indvars.iv, 1
  %exitcond = icmp eq i64 %indvars.iv.next, %wide.trip.count
  br i1 %exitcond, label %for.end88, label %for.body84

for.end88:                                        ; preds = %for.body84, %do.body68.preheader, %for.cond81.preheader
  %35 = bitcast %class.regboundobj* %rboundarp.sroa.0.2 to i8*
  call void @free(i8* %35) #20
  call void @llvm.lifetime.end.p0i8(i64 4, i8* nonnull %1) #21
  call void @llvm.lifetime.end.p0i8(i64 4, i8* nonnull %0) #21
  ret void
}

; Function Attrs: argmemonly nounwind willreturn
declare void @llvm.lifetime.start.p0i8(i64 immarg, i8* nocapture) #3

; Function Attrs: argmemonly nounwind willreturn
declare void @llvm.lifetime.end.p0i8(i64 immarg, i8* nocapture) #3

; Function Attrs: optsize
define dso_local void @_ZN9regmngobj13addallregionsEv(%class.regmngobj* %this) local_unnamed_addr #0 align 2 {
entry:
  %mapmaxy = getelementptr inbounds %class.regmngobj, %class.regmngobj* %this, i64 0, i32 13
  %0 = load i32, i32* %mapmaxy, align 8, !tbaa !33
  %cmp31 = icmp slt i32 %0, 0
  br i1 %cmp31, label %for.end12, label %for.cond2.preheader.lr.ph

for.cond2.preheader.lr.ph:                        ; preds = %entry
  %mapmaxx = getelementptr inbounds %class.regmngobj, %class.regmngobj* %this, i64 0, i32 12
  %regionmapp.i = getelementptr inbounds %class.regmngobj, %class.regmngobj* %this, i64 0, i32 6
  %mapsizex.i = getelementptr inbounds %class.regmngobj, %class.regmngobj* %this, i64 0, i32 16
  %landscapemapp.i = getelementptr inbounds %class.regmngobj, %class.regmngobj* %this, i64 0, i32 7
  %.pre = load i32, i32* %mapmaxx, align 4, !tbaa !32
  br label %for.cond2.preheader

for.cond2.preheader:                              ; preds = %for.inc10, %for.cond2.preheader.lr.ph
  %1 = phi i32 [ %.pre, %for.cond2.preheader.lr.ph ], [ %11, %for.inc10 ]
  %2 = phi i32 [ %.pre, %for.cond2.preheader.lr.ph ], [ %12, %for.inc10 ]
  %y.032 = phi i32 [ 0, %for.cond2.preheader.lr.ph ], [ %inc11, %for.inc10 ]
  %cmp328 = icmp slt i32 %2, 0
  br i1 %cmp328, label %for.inc10, label %for.body4

for.body4:                                        ; preds = %for.cond2.preheader, %for.inc
  %3 = phi i32 [ %10, %for.inc ], [ %1, %for.cond2.preheader ]
  %x.029 = phi i32 [ %inc, %for.inc ], [ 0, %for.cond2.preheader ]
  %4 = load %class.regobj**, %class.regobj*** %regionmapp.i, align 8, !tbaa !27
  %5 = load i32, i32* %mapsizex.i, align 4, !tbaa !30
  %mul.i = mul nsw i32 %5, %y.032
  %add.i = add nsw i32 %mul.i, %x.029
  %idxprom.i = sext i32 %add.i to i64
  %arrayidx.i = getelementptr inbounds %class.regobj*, %class.regobj** %4, i64 %idxprom.i
  %6 = load %class.regobj*, %class.regobj** %arrayidx.i, align 8, !tbaa !26
  %cmp5 = icmp eq %class.regobj* %6, null
  br i1 %cmp5, label %if.then, label %for.inc

if.then:                                          ; preds = %for.body4
  %7 = load i8*, i8** %landscapemapp.i, align 8, !tbaa !28
  %arrayidx.i27 = getelementptr inbounds i8, i8* %7, i64 %idxprom.i
  %8 = load i8, i8* %arrayidx.i27, align 1, !tbaa !29
  %idxprom = zext i8 %8 to i64
  %arrayidx = getelementptr inbounds %class.regmngobj, %class.regmngobj* %this, i64 0, i32 8, i64 %idxprom
  %9 = load i8, i8* %arrayidx, align 1, !tbaa !35, !range !45
  %tobool = icmp eq i8 %9, 0
  br i1 %tobool, label %for.inc, label %if.then7

if.then7:                                         ; preds = %if.then
  %call8 = tail call %class.regobj* @_ZN9regmngobj9newregionEii(%class.regmngobj* nonnull %this, i32 %x.029, i32 %y.032) #19
  %.pre34 = load i32, i32* %mapmaxx, align 4, !tbaa !32
  br label %for.inc

for.inc:                                          ; preds = %if.then, %for.body4, %if.then7
  %10 = phi i32 [ %3, %if.then ], [ %3, %for.body4 ], [ %.pre34, %if.then7 ]
  %inc = add nuw nsw i32 %x.029, 1
  %cmp3 = icmp slt i32 %x.029, %10
  br i1 %cmp3, label %for.body4, label %for.inc10

for.inc10:                                        ; preds = %for.inc, %for.cond2.preheader
  %11 = phi i32 [ %1, %for.cond2.preheader ], [ %10, %for.inc ]
  %12 = phi i32 [ %2, %for.cond2.preheader ], [ %10, %for.inc ]
  %inc11 = add nuw nsw i32 %y.032, 1
  %13 = load i32, i32* %mapmaxy, align 8, !tbaa !33
  %cmp = icmp slt i32 %y.032, %13
  br i1 %cmp, label %for.cond2.preheader, label %for.end12

for.end12:                                        ; preds = %for.inc10, %entry
  ret void
}

; Function Attrs: optsize
define dso_local void @_ZN9regmngobj10addregionsEv(%class.regmngobj* %this) local_unnamed_addr #0 align 2 {
for.cond2.preheader:
  %mapmaxy = getelementptr inbounds %class.regmngobj, %class.regmngobj* %this, i64 0, i32 13
  %mapmaxx = getelementptr inbounds %class.regmngobj, %class.regmngobj* %this, i64 0, i32 12
  %regionmapp.i = getelementptr inbounds %class.regmngobj, %class.regmngobj* %this, i64 0, i32 6
  %mapsizex.i = getelementptr inbounds %class.regmngobj, %class.regmngobj* %this, i64 0, i32 16
  %landscapemapp.i = getelementptr inbounds %class.regmngobj, %class.regmngobj* %this, i64 0, i32 7
  %.pre = load i32, i32* %mapmaxy, align 8, !tbaa !33
  %cmp343 = icmp slt i32 %.pre, 0
  br i1 %cmp343, label %for.end22, label %for.cond5.preheader.preheader

for.cond5.preheader.preheader:                    ; preds = %for.cond2.preheader
  %.pre47 = load i32, i32* %mapmaxx, align 4, !tbaa !32
  br label %for.cond5.preheader

for.cond5.preheader:                              ; preds = %for.cond5.preheader.preheader, %for.inc17
  %0 = phi i32 [ %8, %for.inc17 ], [ %.pre47, %for.cond5.preheader.preheader ]
  %y.044 = phi i32 [ %inc18, %for.inc17 ], [ 0, %for.cond5.preheader.preheader ]
  %cmp640 = icmp slt i32 %0, 0
  br i1 %cmp640, label %for.inc17, label %for.body7

for.body7:                                        ; preds = %for.cond5.preheader, %for.inc
  %x.041 = phi i32 [ %inc, %for.inc ], [ 0, %for.cond5.preheader ]
  %1 = load %class.regobj**, %class.regobj*** %regionmapp.i, align 8, !tbaa !27
  %2 = load i32, i32* %mapsizex.i, align 4, !tbaa !30
  %mul.i = mul nsw i32 %2, %y.044
  %add.i = add nsw i32 %mul.i, %x.041
  %idxprom.i = sext i32 %add.i to i64
  %arrayidx.i = getelementptr inbounds %class.regobj*, %class.regobj** %1, i64 %idxprom.i
  %3 = load %class.regobj*, %class.regobj** %arrayidx.i, align 8, !tbaa !26
  %cmp8 = icmp eq %class.regobj* %3, null
  br i1 %cmp8, label %if.then, label %for.inc

if.then:                                          ; preds = %for.body7
  %4 = load i8*, i8** %landscapemapp.i, align 8, !tbaa !28
  %arrayidx.i39 = getelementptr inbounds i8, i8* %4, i64 %idxprom.i
  %5 = load i8, i8* %arrayidx.i39, align 1, !tbaa !29
  %idxprom = zext i8 %5 to i64
  %arrayidx = getelementptr inbounds %class.regmngobj, %class.regmngobj* %this, i64 0, i32 8, i64 %idxprom
  %6 = load i8, i8* %arrayidx, align 1, !tbaa !35, !range !45
  %tobool = icmp eq i8 %6, 0
  br i1 %tobool, label %for.inc, label %if.then10

if.then10:                                        ; preds = %if.then
  %call11 = tail call i32 @_Z7random1i(i32 32) #19
  %cmp12 = icmp eq i32 %call11, 1
  br i1 %cmp12, label %if.then13, label %for.inc

if.then13:                                        ; preds = %if.then10
  %call14 = tail call %class.regobj* @_ZN9regmngobj9newregionEii(%class.regmngobj* nonnull %this, i32 %x.041, i32 %y.044) #19
  br label %for.inc

for.inc:                                          ; preds = %if.then, %for.body7, %if.then10, %if.then13
  %inc = add nuw nsw i32 %x.041, 1
  %7 = load i32, i32* %mapmaxx, align 4, !tbaa !32
  %cmp6 = icmp slt i32 %x.041, %7
  br i1 %cmp6, label %for.body7, label %for.inc17

for.inc17:                                        ; preds = %for.inc, %for.cond5.preheader
  %8 = phi i32 [ %0, %for.cond5.preheader ], [ %7, %for.inc ]
  %inc18 = add nuw nsw i32 %y.044, 1
  %9 = load i32, i32* %mapmaxy, align 8, !tbaa !33
  %cmp3 = icmp slt i32 %y.044, %9
  br i1 %cmp3, label %for.cond5.preheader, label %for.end22

for.end22:                                        ; preds = %for.inc17, %for.cond2.preheader
  tail call void @_ZN9regmngobj13addallregionsEv(%class.regmngobj* nonnull %this) #19
  ret void
}

; Function Attrs: optsize
define dso_local void @_ZN9regmngobj15redefineregionsEv(%class.regmngobj* %this) local_unnamed_addr #0 align 2 {
entry:
  %call.i.i = tail call noalias dereferenceable_or_null(1792) i8* @malloc(i64 1792) #20
  %0 = bitcast i8* %call.i.i to %class.regboundobj*
  %elemqu = getelementptr inbounds %class.regmngobj, %class.regmngobj* %this, i64 0, i32 18, i32 4
  %1 = load i32, i32* %elemqu, align 8, !tbaa !25
  %cmp85 = icmp sgt i32 %1, 0
  br i1 %cmp85, label %for.body.lr.ph, label %for.end33

for.body.lr.ph:                                   ; preds = %entry
  %ep.i = getelementptr inbounds %class.regmngobj, %class.regmngobj* %this, i64 0, i32 18, i32 0
  br label %for.body

do.body.preheader:                                ; preds = %for.inc
  %cmp1382 = icmp sgt i32 %rboundarp.sroa.9.1, 0
  br i1 %cmp1382, label %for.body14, label %for.end33

for.body:                                         ; preds = %for.body.lr.ph, %for.inc
  %2 = phi i32 [ %1, %for.body.lr.ph ], [ %11, %for.inc ]
  %indvars.iv92 = phi i64 [ 0, %for.body.lr.ph ], [ %indvars.iv.next93, %for.inc ]
  %rboundarp.sroa.0.088 = phi %class.regboundobj* [ %0, %for.body.lr.ph ], [ %rboundarp.sroa.0.2, %for.inc ]
  %rboundarp.sroa.9.087 = phi i32 [ 0, %for.body.lr.ph ], [ %rboundarp.sroa.9.1, %for.inc ]
  %rboundarp.sroa.15.086 = phi i32 [ 16, %for.body.lr.ph ], [ %rboundarp.sroa.15.2, %for.inc ]
  %3 = load %class.regobj**, %class.regobj*** %ep.i, align 8, !tbaa !17
  %arrayidx.i = getelementptr inbounds %class.regobj*, %class.regobj** %3, i64 %indvars.iv92
  %4 = load %class.regobj*, %class.regobj** %arrayidx.i, align 8, !tbaa !26
  %flredefine = getelementptr inbounds %class.regobj, %class.regobj* %4, i64 0, i32 2
  %5 = load i8, i8* %flredefine, align 1, !tbaa !52, !range !45
  %tobool = icmp eq i8 %5, 0
  br i1 %tobool, label %for.inc, label %if.then

if.then:                                          ; preds = %for.body
  %cmp.i = icmp eq i32 %rboundarp.sroa.9.087, %rboundarp.sroa.15.086
  br i1 %cmp.i, label %if.then.i, label %_ZN9flexarrayI11regboundobjE3addEv.exit

if.then.i:                                        ; preds = %if.then
  %shl.i = shl i32 %rboundarp.sroa.9.087, 1
  %mul.i = mul i32 %rboundarp.sroa.9.087, 224
  %conv.i.i = sext i32 %mul.i to i64
  %call.i.i53 = tail call noalias i8* @malloc(i64 %conv.i.i) #20
  %6 = bitcast %class.regboundobj* %rboundarp.sroa.0.088 to i8*
  %conv4.i = sext i32 %rboundarp.sroa.9.087 to i64
  %mul5.i = mul nsw i64 %conv4.i, 112
  tail call void @llvm.memcpy.p0i8.p0i8.i64(i8* align 8 %call.i.i53, i8* align 8 %6, i64 %mul5.i, i1 false) #21
  tail call void @free(i8* %6) #20
  %7 = bitcast i8* %call.i.i53 to %class.regboundobj*
  %.pre = load %class.regobj**, %class.regobj*** %ep.i, align 8, !tbaa !17
  %arrayidx.i57.phi.trans.insert = getelementptr inbounds %class.regobj*, %class.regobj** %.pre, i64 %indvars.iv92
  %.pre94 = load %class.regobj*, %class.regobj** %arrayidx.i57.phi.trans.insert, align 8, !tbaa !26
  br label %_ZN9flexarrayI11regboundobjE3addEv.exit

_ZN9flexarrayI11regboundobjE3addEv.exit:          ; preds = %if.then, %if.then.i
  %8 = phi %class.regobj* [ %.pre94, %if.then.i ], [ %4, %if.then ]
  %rboundarp.sroa.15.1 = phi i32 [ %shl.i, %if.then.i ], [ %rboundarp.sroa.15.086, %if.then ]
  %rboundarp.sroa.0.1 = phi %class.regboundobj* [ %7, %if.then.i ], [ %rboundarp.sroa.0.088, %if.then ]
  %inc.i = add nsw i32 %rboundarp.sroa.9.087, 1
  %idx.ext.i = sext i32 %inc.i to i64
  %add.ptr.i = getelementptr inbounds %class.regboundobj, %class.regboundobj* %rboundarp.sroa.0.1, i64 -1
  %add.ptr4.i = getelementptr inbounds %class.regboundobj, %class.regboundobj* %add.ptr.i, i64 %idx.ext.i
  %flexist = getelementptr inbounds %class.regboundobj, %class.regboundobj* %add.ptr4.i, i64 0, i32 17
  store i8 1, i8* %flexist, align 8, !tbaa !49
  %x = getelementptr inbounds %class.regobj, %class.regobj* %8, i64 0, i32 5, i32 0
  %9 = load i32, i32* %x, align 4, !tbaa !47
  %y = getelementptr inbounds %class.regobj, %class.regobj* %8, i64 0, i32 5, i32 1
  %10 = load i32, i32* %y, align 4, !tbaa !48
  tail call void @_ZN11regboundobj9firststepEiiP6regobjP9regmngobj(%class.regboundobj* nonnull %add.ptr4.i, i32 %9, i32 %10, %class.regobj* %8, %class.regmngobj* nonnull %this) #19
  %.pre95 = load i32, i32* %elemqu, align 8, !tbaa !25
  br label %for.inc

for.inc:                                          ; preds = %for.body, %_ZN9flexarrayI11regboundobjE3addEv.exit
  %11 = phi i32 [ %2, %for.body ], [ %.pre95, %_ZN9flexarrayI11regboundobjE3addEv.exit ]
  %rboundarp.sroa.15.2 = phi i32 [ %rboundarp.sroa.15.086, %for.body ], [ %rboundarp.sroa.15.1, %_ZN9flexarrayI11regboundobjE3addEv.exit ]
  %rboundarp.sroa.9.1 = phi i32 [ %rboundarp.sroa.9.087, %for.body ], [ %inc.i, %_ZN9flexarrayI11regboundobjE3addEv.exit ]
  %rboundarp.sroa.0.2 = phi %class.regboundobj* [ %rboundarp.sroa.0.088, %for.body ], [ %rboundarp.sroa.0.1, %_ZN9flexarrayI11regboundobjE3addEv.exit ]
  %indvars.iv.next93 = add nuw nsw i64 %indvars.iv92, 1
  %12 = sext i32 %11 to i64
  %cmp = icmp slt i64 %indvars.iv.next93, %12
  br i1 %cmp, label %for.body, label %do.body.preheader

for.body14:                                       ; preds = %do.body.preheader, %for.body14
  %i.184 = phi i32 [ %inc21.mux, %for.body14 ], [ 0, %do.body.preheader ]
  %fldone.0.off083 = phi i1 [ %spec.select.mux, %for.body14 ], [ true, %do.body.preheader ]
  %idxprom.i65 = zext i32 %i.184 to i64
  %arrayidx.i66 = getelementptr inbounds %class.regboundobj, %class.regboundobj* %rboundarp.sroa.0.2, i64 %idxprom.i65
  %call16 = tail call i1 @_ZN11regboundobj4stepEv(%class.regboundobj* nonnull %arrayidx.i66) #19
  %not.call16 = xor i1 %call16, true
  %spec.select = and i1 %fldone.0.off083, %not.call16
  %inc21 = add nuw nsw i32 %i.184, 1
  %cmp13 = icmp slt i32 %inc21, %rboundarp.sroa.9.1
  %spec.select.not = xor i1 %spec.select, true
  %brmerge = or i1 %cmp13, %spec.select.not
  %inc21.mux = select i1 %cmp13, i32 %inc21, i32 0
  %not.cmp13 = xor i1 %cmp13, true
  %spec.select.mux = or i1 %spec.select, %not.cmp13
  br i1 %brmerge, label %for.body14, label %for.cond26.preheader

for.cond26.preheader:                             ; preds = %for.body14
  br i1 %cmp1382, label %for.body29.preheader, label %for.end33

for.body29.preheader:                             ; preds = %for.cond26.preheader
  %wide.trip.count = zext i32 %rboundarp.sroa.9.1 to i64
  br label %for.body29

for.body29:                                       ; preds = %for.body29, %for.body29.preheader
  %indvars.iv = phi i64 [ 0, %for.body29.preheader ], [ %indvars.iv.next, %for.body29 ]
  %arrayidx.i63 = getelementptr inbounds %class.regboundobj, %class.regboundobj* %rboundarp.sroa.0.2, i64 %indvars.iv
  tail call void @_ZN11regboundobj7destroyEv(%class.regboundobj* nonnull %arrayidx.i63) #19
  %indvars.iv.next = add nuw nsw i64 %indvars.iv, 1
  %exitcond = icmp eq i64 %indvars.iv.next, %wide.trip.count
  br i1 %exitcond, label %for.end33, label %for.body29

for.end33:                                        ; preds = %for.body29, %entry, %do.body.preheader, %for.cond26.preheader
  %rboundarp.sroa.0.0.lcssa100105 = phi %class.regboundobj* [ %rboundarp.sroa.0.2, %for.cond26.preheader ], [ %rboundarp.sroa.0.2, %do.body.preheader ], [ %0, %entry ], [ %rboundarp.sroa.0.2, %for.body29 ]
  %13 = bitcast %class.regboundobj* %rboundarp.sroa.0.0.lcssa100105 to i8*
  tail call void @free(i8* %13) #20
  ret void
}

; Function Attrs: optsize
define dso_local void @_ZN9regmngobj14enlargeregionsEv(%class.regmngobj* %this) local_unnamed_addr #0 align 2 {
entry:
  %radiuscoef = getelementptr inbounds %class.regmngobj, %class.regmngobj* %this, i64 0, i32 11
  %0 = load float, float* %radiuscoef, align 8, !tbaa !46
  %conv = fpext float %0 to double
  %mul = fmul double %conv, 1.070000e+02
  %mul4 = fmul double %mul, %conv
  %conv5 = fptosi double %mul4 to i32
  %rarp = getelementptr inbounds %class.regmngobj, %class.regmngobj* %this, i64 0, i32 18
  %elemqu = getelementptr inbounds %class.regmngobj, %class.regmngobj* %this, i64 0, i32 18, i32 4
  %1 = load i32, i32* %elemqu, align 8, !tbaa !25
  %cmp46 = icmp sgt i32 %1, 0
  br i1 %cmp46, label %for.body.lr.ph, label %for.end22

for.body.lr.ph:                                   ; preds = %entry
  %ep.i = getelementptr inbounds %class.largesolidarray, %class.largesolidarray* %rarp, i64 0, i32 0
  %2 = load %class.regobj**, %class.regobj*** %ep.i, align 8, !tbaa !17
  %3 = zext i32 %1 to i64
  br label %for.body

for.cond7.preheader:                              ; preds = %for.body
  br i1 %cmp46, label %for.body11.lr.ph, label %for.end22

for.body11.lr.ph:                                 ; preds = %for.cond7.preheader
  %ep.i35 = getelementptr inbounds %class.largesolidarray, %class.largesolidarray* %rarp, i64 0, i32 0
  %4 = load %class.regobj**, %class.regobj*** %ep.i35, align 8, !tbaa !17
  %wide.trip.count = zext i32 %1 to i64
  br label %for.body11

for.body:                                         ; preds = %for.body.lr.ph, %for.body
  %indvars.iv49 = phi i64 [ 0, %for.body.lr.ph ], [ %indvars.iv.next50, %for.body ]
  %arrayidx.i = getelementptr inbounds %class.regobj*, %class.regobj** %2, i64 %indvars.iv49
  %5 = load %class.regobj*, %class.regobj** %arrayidx.i, align 8, !tbaa !26
  %flredefine = getelementptr inbounds %class.regobj, %class.regobj* %5, i64 0, i32 2
  store i8 1, i8* %flredefine, align 1, !tbaa !52
  %indvars.iv.next50 = add nuw nsw i64 %indvars.iv49, 1
  %cmp = icmp ult i64 %indvars.iv.next50, %3
  br i1 %cmp, label %for.body, label %for.cond7.preheader

for.body11:                                       ; preds = %for.inc20, %for.body11.lr.ph
  %indvars.iv = phi i64 [ 0, %for.body11.lr.ph ], [ %indvars.iv.next, %for.inc20 ]
  %arrayidx.i37 = getelementptr inbounds %class.regobj*, %class.regobj** %4, i64 %indvars.iv
  %6 = load %class.regobj*, %class.regobj** %arrayidx.i37, align 8, !tbaa !26
  %square = getelementptr inbounds %class.regobj, %class.regobj* %6, i64 0, i32 4
  %7 = load i32, i32* %square, align 8, !tbaa !36
  %cmp14 = icmp slt i32 %7, %conv5
  br i1 %cmp14, label %if.then, label %for.inc20

if.then:                                          ; preds = %for.body11
  %flredefine17 = getelementptr inbounds %class.regobj, %class.regobj* %6, i64 0, i32 2
  store i8 0, i8* %flredefine17, align 1, !tbaa !52
  %flexist = getelementptr inbounds %class.regobj, %class.regobj* %6, i64 0, i32 1
  store i8 0, i8* %flexist, align 4, !tbaa !40
  br label %for.inc20

for.inc20:                                        ; preds = %for.body11, %if.then
  %indvars.iv.next = add nuw nsw i64 %indvars.iv, 1
  %exitcond = icmp eq i64 %indvars.iv.next, %wide.trip.count
  br i1 %exitcond, label %for.end22, label %for.body11

for.end22:                                        ; preds = %for.inc20, %entry, %for.cond7.preheader
  tail call void @_ZN9regmngobj13deleteregionsEv(%class.regmngobj* nonnull %this) #19
  %regionmapp = getelementptr inbounds %class.regmngobj, %class.regmngobj* %this, i64 0, i32 6
  %8 = bitcast %class.regobj*** %regionmapp to i8**
  %9 = load i8*, i8** %8, align 8, !tbaa !27
  %mapsizex = getelementptr inbounds %class.regmngobj, %class.regmngobj* %this, i64 0, i32 16
  %10 = load i32, i32* %mapsizex, align 4, !tbaa !30
  %mapsizey = getelementptr inbounds %class.regmngobj, %class.regmngobj* %this, i64 0, i32 17
  %11 = load i32, i32* %mapsizey, align 8, !tbaa !31
  %mul23 = mul nsw i32 %11, %10
  %conv24 = sext i32 %mul23 to i64
  %mul25 = shl nsw i64 %conv24, 3
  tail call void @llvm.memset.p0i8.i64(i8* align 8 %9, i8 0, i64 %mul25, i1 false)
  tail call void @_ZN9regmngobj15redefineregionsEv(%class.regmngobj* nonnull %this) #19
  ret void
}

; Function Attrs: optsize
define dso_local void @_ZN9regmngobj18enlargeneighborsesEi(%class.regmngobj* %this, i32 %critical) local_unnamed_addr #0 align 2 {
entry:
  %rarp = getelementptr inbounds %class.regmngobj, %class.regmngobj* %this, i64 0, i32 18
  %elemqu = getelementptr inbounds %class.regmngobj, %class.regmngobj* %this, i64 0, i32 18, i32 4
  %0 = load i32, i32* %elemqu, align 8, !tbaa !25
  %cmp149 = icmp sgt i32 %0, 0
  br i1 %cmp149, label %for.body.lr.ph, label %for.cond53.preheader

for.body.lr.ph:                                   ; preds = %entry
  %ep.i = getelementptr inbounds %class.largesolidarray, %class.largesolidarray* %rarp, i64 0, i32 0
  %1 = load %class.regobj**, %class.regobj*** %ep.i, align 8, !tbaa !17
  %2 = zext i32 %0 to i64
  br label %for.body

for.cond3.preheader:                              ; preds = %for.body
  br i1 %cmp149, label %for.body7.lr.ph, label %for.cond53.preheader

for.body7.lr.ph:                                  ; preds = %for.cond3.preheader
  %ep.i106 = getelementptr inbounds %class.largesolidarray, %class.largesolidarray* %rarp, i64 0, i32 0
  %3 = load %class.regobj**, %class.regobj*** %ep.i106, align 8, !tbaa !17
  %wide.trip.count159 = zext i32 %0 to i64
  br label %for.body7

for.body:                                         ; preds = %for.body.lr.ph, %for.body
  %indvars.iv161 = phi i64 [ 0, %for.body.lr.ph ], [ %indvars.iv.next162, %for.body ]
  %arrayidx.i = getelementptr inbounds %class.regobj*, %class.regobj** %1, i64 %indvars.iv161
  %4 = load %class.regobj*, %class.regobj** %arrayidx.i, align 8, !tbaa !26
  %flredefine = getelementptr inbounds %class.regobj, %class.regobj* %4, i64 0, i32 2
  store i8 0, i8* %flredefine, align 1, !tbaa !52
  %indvars.iv.next162 = add nuw nsw i64 %indvars.iv161, 1
  %cmp = icmp ult i64 %indvars.iv.next162, %2
  br i1 %cmp, label %for.body, label %for.cond3.preheader

for.cond30.preheader:                             ; preds = %for.inc27
  br i1 %cmp149, label %for.body34.lr.ph, label %for.cond53.preheader

for.body34.lr.ph:                                 ; preds = %for.cond30.preheader
  %ep.i126 = getelementptr inbounds %class.largesolidarray, %class.largesolidarray* %rarp, i64 0, i32 0
  %5 = load %class.regobj**, %class.regobj*** %ep.i126, align 8, !tbaa !17
  %wide.trip.count = zext i32 %0 to i64
  br label %for.body34

for.body7:                                        ; preds = %for.inc27, %for.body7.lr.ph
  %indvars.iv157 = phi i64 [ 0, %for.body7.lr.ph ], [ %indvars.iv.next158, %for.inc27 ]
  %arrayidx.i108 = getelementptr inbounds %class.regobj*, %class.regobj** %3, i64 %indvars.iv157
  %6 = load %class.regobj*, %class.regobj** %arrayidx.i108, align 8, !tbaa !26
  %square = getelementptr inbounds %class.regobj, %class.regobj* %6, i64 0, i32 4
  %7 = load i32, i32* %square, align 8, !tbaa !36
  %cmp10 = icmp slt i32 %7, %critical
  br i1 %cmp10, label %if.then, label %for.inc27

if.then:                                          ; preds = %for.body7
  %flexist = getelementptr inbounds %class.regobj, %class.regobj* %6, i64 0, i32 1
  store i8 0, i8* %flexist, align 4, !tbaa !40
  %elemqu16 = getelementptr inbounds %class.regobj, %class.regobj* %6, i64 0, i32 9, i32 1
  %8 = load i32, i32* %elemqu16, align 8, !tbaa !53
  %cmp17145 = icmp sgt i32 %8, 0
  br i1 %cmp17145, label %for.body18.lr.ph, label %for.inc27

for.body18.lr.ph:                                 ; preds = %if.then
  %ep.i129 = getelementptr inbounds %class.regobj, %class.regobj* %6, i64 0, i32 9, i32 0
  %9 = load %class.regobj**, %class.regobj*** %ep.i129, align 8, !tbaa !54
  %10 = zext i32 %8 to i64
  br label %for.body18

for.body18:                                       ; preds = %for.body18.lr.ph, %for.body18
  %indvars.iv155 = phi i64 [ 0, %for.body18.lr.ph ], [ %indvars.iv.next156, %for.body18 ]
  %arrayidx.i131 = getelementptr inbounds %class.regobj*, %class.regobj** %9, i64 %indvars.iv155
  %11 = load %class.regobj*, %class.regobj** %arrayidx.i131, align 8, !tbaa !26
  %flredefine23 = getelementptr inbounds %class.regobj, %class.regobj* %11, i64 0, i32 2
  store i8 1, i8* %flredefine23, align 1, !tbaa !52
  %indvars.iv.next156 = add nuw nsw i64 %indvars.iv155, 1
  %cmp17 = icmp ult i64 %indvars.iv.next156, %10
  br i1 %cmp17, label %for.body18, label %for.inc27

for.inc27:                                        ; preds = %for.body18, %if.then, %for.body7
  %indvars.iv.next158 = add nuw nsw i64 %indvars.iv157, 1
  %exitcond160 = icmp eq i64 %indvars.iv.next158, %wide.trip.count159
  br i1 %exitcond160, label %for.cond30.preheader, label %for.body7

for.cond53.preheader:                             ; preds = %for.inc50, %entry, %for.cond3.preheader, %for.cond30.preheader
  %mapmaxy = getelementptr inbounds %class.regmngobj, %class.regmngobj* %this, i64 0, i32 13
  %12 = load i32, i32* %mapmaxy, align 8, !tbaa !33
  %cmp54140 = icmp slt i32 %12, 0
  br i1 %cmp54140, label %for.end77, label %for.cond56.preheader.lr.ph

for.cond56.preheader.lr.ph:                       ; preds = %for.cond53.preheader
  %mapmaxx = getelementptr inbounds %class.regmngobj, %class.regmngobj* %this, i64 0, i32 12
  %13 = load i32, i32* %mapmaxx, align 4, !tbaa !32
  %cmp57138 = icmp slt i32 %13, 0
  %regionmapp.i114 = getelementptr inbounds %class.regmngobj, %class.regmngobj* %this, i64 0, i32 6
  %mapsizex.i115 = getelementptr inbounds %class.regmngobj, %class.regmngobj* %this, i64 0, i32 16
  %14 = zext i32 %13 to i64
  br label %for.cond56.preheader

for.body34:                                       ; preds = %for.inc50, %for.body34.lr.ph
  %indvars.iv153 = phi i64 [ 0, %for.body34.lr.ph ], [ %indvars.iv.next154, %for.inc50 ]
  %arrayidx.i128 = getelementptr inbounds %class.regobj*, %class.regobj** %5, i64 %indvars.iv153
  %15 = load %class.regobj*, %class.regobj** %arrayidx.i128, align 8, !tbaa !26
  %flredefine37 = getelementptr inbounds %class.regobj, %class.regobj* %15, i64 0, i32 2
  %16 = load i8, i8* %flredefine37, align 1, !tbaa !52, !range !45
  %tobool = icmp eq i8 %16, 0
  br i1 %tobool, label %for.inc50, label %if.then38

if.then38:                                        ; preds = %for.body34
  %flexist41 = getelementptr inbounds %class.regobj, %class.regobj* %15, i64 0, i32 1
  %17 = load i8, i8* %flexist41, align 4, !tbaa !40, !range !45
  %cmp43 = icmp eq i8 %17, 0
  br i1 %cmp43, label %if.then44, label %for.inc50

if.then44:                                        ; preds = %if.then38
  store i8 0, i8* %flredefine37, align 1, !tbaa !52
  br label %for.inc50

for.inc50:                                        ; preds = %for.body34, %if.then44, %if.then38
  %indvars.iv.next154 = add nuw nsw i64 %indvars.iv153, 1
  %exitcond = icmp eq i64 %indvars.iv.next154, %wide.trip.count
  br i1 %exitcond, label %for.cond53.preheader, label %for.body34

for.cond56.preheader:                             ; preds = %for.inc75, %for.cond56.preheader.lr.ph
  %y.0141 = phi i32 [ 0, %for.cond56.preheader.lr.ph ], [ %inc76, %for.inc75 ]
  br i1 %cmp57138, label %for.inc75, label %for.body58.lr.ph

for.body58.lr.ph:                                 ; preds = %for.cond56.preheader
  %18 = load i32, i32* %mapsizex.i115, align 4, !tbaa !30
  %mul.i116 = mul nsw i32 %18, %y.0141
  %19 = sext i32 %mul.i116 to i64
  br label %for.body58

for.body58:                                       ; preds = %for.inc72, %for.body58.lr.ph
  %indvars.iv = phi i64 [ %indvars.iv.next, %for.inc72 ], [ 0, %for.body58.lr.ph ]
  %20 = load %class.regobj**, %class.regobj*** %regionmapp.i114, align 8, !tbaa !27
  %21 = add nsw i64 %indvars.iv, %19
  %arrayidx.i119 = getelementptr inbounds %class.regobj*, %class.regobj** %20, i64 %21
  %22 = load %class.regobj*, %class.regobj** %arrayidx.i119, align 8, !tbaa !26
  %tobool60 = icmp eq %class.regobj* %22, null
  br i1 %tobool60, label %for.inc72, label %if.then61

if.then61:                                        ; preds = %for.body58
  %flredefine62 = getelementptr inbounds %class.regobj, %class.regobj* %22, i64 0, i32 2
  %23 = load i8, i8* %flredefine62, align 1, !tbaa !52, !range !45
  %tobool63 = icmp eq i8 %23, 0
  br i1 %tobool63, label %lor.lhs.false, label %if.then68

lor.lhs.false:                                    ; preds = %if.then61
  %flexist64 = getelementptr inbounds %class.regobj, %class.regobj* %22, i64 0, i32 1
  %24 = load i8, i8* %flexist64, align 4, !tbaa !40, !range !45
  %cmp67 = icmp eq i8 %24, 0
  br i1 %cmp67, label %if.then68, label %for.inc72

if.then68:                                        ; preds = %if.then61, %lor.lhs.false
  store %class.regobj* null, %class.regobj** %arrayidx.i119, align 8, !tbaa !26
  br label %for.inc72

for.inc72:                                        ; preds = %for.body58, %if.then68, %lor.lhs.false
  %indvars.iv.next = add nuw nsw i64 %indvars.iv, 1
  %cmp57 = icmp ult i64 %indvars.iv, %14
  br i1 %cmp57, label %for.body58, label %for.inc75

for.inc75:                                        ; preds = %for.inc72, %for.cond56.preheader
  %inc76 = add nuw nsw i32 %y.0141, 1
  %cmp54 = icmp slt i32 %y.0141, %12
  br i1 %cmp54, label %for.cond56.preheader, label %for.end77

for.end77:                                        ; preds = %for.inc75, %for.cond53.preheader
  tail call void @_ZN9regmngobj13deleteregionsEv(%class.regmngobj* nonnull %this) #19
  tail call void @_ZN9regmngobj15redefineregionsEv(%class.regmngobj* nonnull %this) #19
  ret void
}

; Function Attrs: optsize
define dso_local void @_ZN9regmngobj13createregionsEi(%class.regmngobj* %this, i32 %regionl) local_unnamed_addr #0 align 2 {
entry:
  %regionmapp = getelementptr inbounds %class.regmngobj, %class.regmngobj* %this, i64 0, i32 6
  %0 = bitcast %class.regobj*** %regionmapp to i8**
  %1 = load i8*, i8** %0, align 8, !tbaa !27
  %mapsizex = getelementptr inbounds %class.regmngobj, %class.regmngobj* %this, i64 0, i32 16
  %2 = load i32, i32* %mapsizex, align 4, !tbaa !30
  %mapsizey = getelementptr inbounds %class.regmngobj, %class.regmngobj* %this, i64 0, i32 17
  %3 = load i32, i32* %mapsizey, align 8, !tbaa !31
  %mul = mul nsw i32 %3, %2
  %conv = sext i32 %mul to i64
  %mul2 = shl nsw i64 %conv, 3
  tail call void @llvm.memset.p0i8.i64(i8* align 8 %1, i8 0, i64 %mul2, i1 false)
  %4 = icmp sgt i32 %regionl, 6
  %spec.select = select i1 %4, i32 %regionl, i32 6
  %5 = load i32, i32* %mapsizex, align 4, !tbaa !30
  %div = sdiv i32 %5, 5
  %cmp4 = icmp sgt i32 %spec.select, %div
  %regionl.addr.1 = select i1 %cmp4, i32 %div, i32 %spec.select
  %conv9 = sitofp i32 %regionl.addr.1 to float
  %div10 = fdiv float %conv9, 2.000000e+01
  %radiuscoef = getelementptr inbounds %class.regmngobj, %class.regmngobj* %this, i64 0, i32 11
  store float %div10, float* %radiuscoef, align 8, !tbaa !46
  %mul12 = fmul float %div10, 1.000000e+01
  %conv13 = fptosi float %mul12 to i32
  %regionradius = getelementptr inbounds %class.regmngobj, %class.regmngobj* %this, i64 0, i32 9
  store i32 %conv13, i32* %regionradius, align 8, !tbaa !55
  %mul16 = mul nsw i32 %conv13, %conv13
  %regionradius2 = getelementptr inbounds %class.regmngobj, %class.regmngobj* %this, i64 0, i32 10
  store i32 %mul16, i32* %regionradius2, align 4, !tbaa !56
  tail call void @_ZN9regmngobj13defineregionsEv(%class.regmngobj* %this) #19
  tail call void @_ZN9regmngobj14enlargeregionsEv(%class.regmngobj* %this) #19
  %6 = load float, float* %radiuscoef, align 8, !tbaa !46
  %mul18 = fmul float %6, 1.900000e+01
  %conv19 = fptosi float %mul18 to i32
  store i32 %conv19, i32* %regionradius, align 8, !tbaa !55
  %mul23 = mul nsw i32 %conv19, %conv19
  store i32 %mul23, i32* %regionradius2, align 4, !tbaa !56
  tail call void @_ZN9regmngobj10addregionsEv(%class.regmngobj* %this) #19
  %mapmaxx = getelementptr inbounds %class.regmngobj, %class.regmngobj* %this, i64 0, i32 12
  %7 = load i32, i32* %mapmaxx, align 4, !tbaa !32
  %mul25 = mul nsw i32 %7, 5
  store i32 %mul25, i32* %regionradius, align 8, !tbaa !55
  %mul29 = mul nsw i32 %mul25, %mul25
  store i32 %mul29, i32* %regionradius2, align 4, !tbaa !56
  tail call void @_ZN9regmngobj19defineneighborhood1Ev(%class.regmngobj* %this) #19
  %8 = load float, float* %radiuscoef, align 8, !tbaa !46
  %mul32 = fmul float %8, 7.500000e+01
  %mul34 = fmul float %8, %mul32
  %conv35 = fptosi float %mul34 to i32
  tail call void @_ZN9regmngobj18enlargeneighborsesEi(%class.regmngobj* %this, i32 %conv35) #19
  tail call void @_ZN9regmngobj19defineneighborhood1Ev(%class.regmngobj* %this) #19
  %9 = load float, float* %radiuscoef, align 8, !tbaa !46
  %conv37 = fpext float %9 to double
  %mul38 = fmul double %conv37, 7.500000e+01
  %mul41 = fmul double %mul38, %conv37
  %conv42 = fptosi double %mul41 to i32
  tail call void @_ZN9regmngobj18enlargeneighborsesEi(%class.regmngobj* %this, i32 %conv42) #19
  tail call void @_ZN9regmngobj13addallregionsEv(%class.regmngobj* %this) #19
  tail call void @_ZN9regmngobj13deleteregionsEv(%class.regmngobj* %this) #19
  %mapmaxy = getelementptr inbounds %class.regmngobj, %class.regmngobj* %this, i64 0, i32 13
  %10 = load i32, i32* %mapmaxy, align 8, !tbaa !33
  %cmp43115 = icmp sgt i32 %10, 0
  br i1 %cmp43115, label %for.cond44.preheader.lr.ph, label %for.end57

for.cond44.preheader.lr.ph:                       ; preds = %entry
  %landscapemapp.i = getelementptr inbounds %class.regmngobj, %class.regmngobj* %this, i64 0, i32 7
  %.pre = load i32, i32* %mapmaxx, align 4, !tbaa !32
  br label %for.cond44.preheader

for.cond44.preheader:                             ; preds = %for.cond44.preheader.lr.ph, %for.inc55
  %11 = phi i32 [ %.pre, %for.cond44.preheader.lr.ph ], [ %21, %for.inc55 ]
  %12 = phi i32 [ %.pre, %for.cond44.preheader.lr.ph ], [ %22, %for.inc55 ]
  %y.0116 = phi i32 [ 0, %for.cond44.preheader.lr.ph ], [ %inc56, %for.inc55 ]
  %cmp46113 = icmp sgt i32 %12, 0
  br i1 %cmp46113, label %for.body47, label %for.inc55

for.body47:                                       ; preds = %for.cond44.preheader, %for.inc
  %13 = phi i32 [ %20, %for.inc ], [ %11, %for.cond44.preheader ]
  %x.0114 = phi i32 [ %inc, %for.inc ], [ 0, %for.cond44.preheader ]
  %14 = load %class.regobj**, %class.regobj*** %regionmapp, align 8, !tbaa !27
  %15 = load i32, i32* %mapsizex, align 4, !tbaa !30
  %mul.i = mul nsw i32 %15, %y.0116
  %add.i = add nsw i32 %mul.i, %x.0114
  %idxprom.i = sext i32 %add.i to i64
  %arrayidx.i = getelementptr inbounds %class.regobj*, %class.regobj** %14, i64 %idxprom.i
  %16 = load %class.regobj*, %class.regobj** %arrayidx.i, align 8, !tbaa !26
  %cmp48 = icmp eq %class.regobj* %16, null
  br i1 %cmp48, label %if.then49, label %for.inc

if.then49:                                        ; preds = %for.body47
  %17 = load i8*, i8** %landscapemapp.i, align 8, !tbaa !28
  %arrayidx.i104 = getelementptr inbounds i8, i8* %17, i64 %idxprom.i
  %18 = load i8, i8* %arrayidx.i104, align 1, !tbaa !29
  %idxprom = zext i8 %18 to i64
  %arrayidx = getelementptr inbounds %class.regmngobj, %class.regmngobj* %this, i64 0, i32 8, i64 %idxprom
  %19 = load i8, i8* %arrayidx, align 1, !tbaa !35, !range !45
  %tobool = icmp eq i8 %19, 0
  br i1 %tobool, label %for.inc, label %if.then51

if.then51:                                        ; preds = %if.then49
  %call52 = tail call i32 (i8*, ...) @printf(i8* nonnull dereferenceable(1) getelementptr inbounds ([23 x i8], [23 x i8]* @.str, i64 0, i64 0)) #19
  %.pre120 = load i32, i32* %mapmaxx, align 4, !tbaa !32
  br label %for.inc

for.inc:                                          ; preds = %if.then49, %for.body47, %if.then51
  %20 = phi i32 [ %13, %if.then49 ], [ %13, %for.body47 ], [ %.pre120, %if.then51 ]
  %inc = add nuw nsw i32 %x.0114, 1
  %cmp46 = icmp slt i32 %inc, %20
  br i1 %cmp46, label %for.body47, label %for.inc55

for.inc55:                                        ; preds = %for.inc, %for.cond44.preheader
  %21 = phi i32 [ %11, %for.cond44.preheader ], [ %20, %for.inc ]
  %22 = phi i32 [ %12, %for.cond44.preheader ], [ %20, %for.inc ]
  %inc56 = add nuw nsw i32 %y.0116, 1
  %23 = load i32, i32* %mapmaxy, align 8, !tbaa !33
  %cmp43 = icmp slt i32 %inc56, %23
  br i1 %cmp43, label %for.cond44.preheader, label %for.end57

for.end57:                                        ; preds = %for.inc55, %entry
  tail call void @_ZN9regmngobj19defineneighborhood1Ev(%class.regmngobj* nonnull %this) #19
  tail call void @_ZN9regmngobj20definemiddleregpointEv(%class.regmngobj* nonnull %this) #19
  tail call void @_ZN9regmngobj20normalizemiddlepointEv(%class.regmngobj* nonnull %this) #19
  %rarp = getelementptr inbounds %class.regmngobj, %class.regmngobj* %this, i64 0, i32 18
  %elemqu = getelementptr inbounds %class.regmngobj, %class.regmngobj* %this, i64 0, i32 18, i32 4
  %24 = load i32, i32* %elemqu, align 8, !tbaa !25
  %cmp59110 = icmp sgt i32 %24, 0
  br i1 %cmp59110, label %for.body60.lr.ph, label %for.end65

for.body60.lr.ph:                                 ; preds = %for.end57
  %ep.i105 = getelementptr inbounds %class.largesolidarray, %class.largesolidarray* %rarp, i64 0, i32 0
  %25 = load %class.regobj**, %class.regobj*** %ep.i105, align 8, !tbaa !17
  %26 = zext i32 %24 to i64
  br label %for.body60

for.body60:                                       ; preds = %for.body60.lr.ph, %for.body60
  %indvars.iv118 = phi i64 [ 0, %for.body60.lr.ph ], [ %indvars.iv.next119, %for.body60 ]
  %arrayidx.i107 = getelementptr inbounds %class.regobj*, %class.regobj** %25, i64 %indvars.iv118
  %27 = load %class.regobj*, %class.regobj** %arrayidx.i107, align 8, !tbaa !26
  %flredefine = getelementptr inbounds %class.regobj, %class.regobj* %27, i64 0, i32 2
  store i8 1, i8* %flredefine, align 1, !tbaa !52
  %indvars.iv.next119 = add nuw nsw i64 %indvars.iv118, 1
  %cmp59 = icmp ult i64 %indvars.iv.next119, %26
  br i1 %cmp59, label %for.body60, label %for.end65

for.end65:                                        ; preds = %for.body60, %for.end57
  %28 = load i8*, i8** %0, align 8, !tbaa !27
  %29 = load i32, i32* %mapsizex, align 4, !tbaa !30
  %30 = load i32, i32* %mapsizey, align 8, !tbaa !31
  %mul69 = mul nsw i32 %30, %29
  %conv70 = sext i32 %mul69 to i64
  %mul71 = shl nsw i64 %conv70, 3
  tail call void @llvm.memset.p0i8.i64(i8* align 8 %28, i8 0, i64 %mul71, i1 false)
  tail call void @_ZN9regmngobj15redefineregionsEv(%class.regmngobj* nonnull %this) #19
  %31 = load i32, i32* %elemqu, align 8, !tbaa !25
  %cmp13.i = icmp sgt i32 %31, 0
  br i1 %cmp13.i, label %for.body.lr.ph.i, label %_ZN9regmngobj17foundemptyregionsEv.exit

for.body.lr.ph.i:                                 ; preds = %for.end65
  %ep.i.i = getelementptr inbounds %class.regmngobj, %class.regmngobj* %this, i64 0, i32 18, i32 0
  %32 = load %class.regobj**, %class.regobj*** %ep.i.i, align 8, !tbaa !17
  %33 = zext i32 %31 to i64
  br label %for.body.i

for.body.i:                                       ; preds = %for.inc.i, %for.body.lr.ph.i
  %indvars.iv.i = phi i64 [ 0, %for.body.lr.ph.i ], [ %indvars.iv.next.i, %for.inc.i ]
  %arrayidx.i.i = getelementptr inbounds %class.regobj*, %class.regobj** %32, i64 %indvars.iv.i
  %34 = load %class.regobj*, %class.regobj** %arrayidx.i.i, align 8, !tbaa !26
  %square.i = getelementptr inbounds %class.regobj, %class.regobj* %34, i64 0, i32 4
  %35 = load i32, i32* %square.i, align 8, !tbaa !36
  %cmp3.i = icmp eq i32 %35, 0
  br i1 %cmp3.i, label %if.then.i, label %for.inc.i

if.then.i:                                        ; preds = %for.body.i
  %flexist.i = getelementptr inbounds %class.regobj, %class.regobj* %34, i64 0, i32 1
  store i8 0, i8* %flexist.i, align 4, !tbaa !40
  br label %for.inc.i

for.inc.i:                                        ; preds = %if.then.i, %for.body.i
  %indvars.iv.next.i = add nuw nsw i64 %indvars.iv.i, 1
  %exitcond = icmp eq i64 %indvars.iv.next.i, %33
  br i1 %exitcond, label %_ZN9regmngobj17foundemptyregionsEv.exit, label %for.body.i

_ZN9regmngobj17foundemptyregionsEv.exit:          ; preds = %for.inc.i, %for.end65
  tail call void @_ZN9regmngobj13deleteregionsEv(%class.regmngobj* %this) #19
  tail call void @_ZN9regmngobj13addallregionsEv(%class.regmngobj* %this) #19
  tail call void @_ZN9regmngobj19defineneighborhood1Ev(%class.regmngobj* %this) #19
  tail call void @_ZN9regmngobj20definemiddleregpointEv(%class.regmngobj* %this) #19
  tail call void @_ZN9regmngobj20normalizemiddlepointEv(%class.regmngobj* %this) #19
  %36 = load i32, i32* %elemqu, align 8, !tbaa !25
  %cmp75108 = icmp sgt i32 %36, 0
  br i1 %cmp75108, label %for.body76.lr.ph, label %for.end81

for.body76.lr.ph:                                 ; preds = %_ZN9regmngobj17foundemptyregionsEv.exit
  %regfillnum = getelementptr inbounds %class.regmngobj, %class.regmngobj* %this, i64 0, i32 5
  %37 = load i32, i32* %regfillnum, align 8, !tbaa !14
  %ep.i = getelementptr inbounds %class.largesolidarray, %class.largesolidarray* %rarp, i64 0, i32 0
  %38 = load %class.regobj**, %class.regobj*** %ep.i, align 8, !tbaa !17
  %39 = zext i32 %36 to i64
  br label %for.body76

for.body76:                                       ; preds = %for.body76.lr.ph, %for.body76
  %indvars.iv = phi i64 [ 0, %for.body76.lr.ph ], [ %indvars.iv.next, %for.body76 ]
  %arrayidx.i99 = getelementptr inbounds %class.regobj*, %class.regobj** %38, i64 %indvars.iv
  %40 = load %class.regobj*, %class.regobj** %arrayidx.i99, align 8, !tbaa !26
  %fillnum = getelementptr inbounds %class.regobj, %class.regobj* %40, i64 0, i32 7
  store i32 %37, i32* %fillnum, align 8, !tbaa !57
  %indvars.iv.next = add nuw nsw i64 %indvars.iv, 1
  %cmp75 = icmp ult i64 %indvars.iv.next, %39
  br i1 %cmp75, label %for.body76, label %for.end81

for.end81:                                        ; preds = %for.body76, %_ZN9regmngobj17foundemptyregionsEv.exit
  ret void
}

; Function Attrs: nounwind optsize
define dso_local void @_ZN9regmngobj19defineneighborhood1Ev(%class.regmngobj* nocapture readonly %this) local_unnamed_addr #8 align 2 {
entry:
  %rarp = getelementptr inbounds %class.regmngobj, %class.regmngobj* %this, i64 0, i32 18
  %elemqu = getelementptr inbounds %class.regmngobj, %class.regmngobj* %this, i64 0, i32 18, i32 4
  %0 = load i32, i32* %elemqu, align 8, !tbaa !25
  %cmp139 = icmp sgt i32 %0, 0
  br i1 %cmp139, label %for.body.lr.ph, label %for.cond13.preheader

for.body.lr.ph:                                   ; preds = %entry
  %ep.i = getelementptr inbounds %class.largesolidarray, %class.largesolidarray* %rarp, i64 0, i32 0
  %1 = load %class.regobj**, %class.regobj*** %ep.i, align 8, !tbaa !17
  %2 = zext i32 %0 to i64
  br label %for.body

for.cond3.preheader:                              ; preds = %for.body
  br i1 %cmp139, label %for.body7.lr.ph, label %for.cond13.preheader

for.body7.lr.ph:                                  ; preds = %for.cond3.preheader
  %ep.i96 = getelementptr inbounds %class.largesolidarray, %class.largesolidarray* %rarp, i64 0, i32 0
  %3 = load %class.regobj**, %class.regobj*** %ep.i96, align 8, !tbaa !17
  %wide.trip.count = zext i32 %0 to i64
  br label %for.body7

for.body:                                         ; preds = %for.body.lr.ph, %for.body
  %indvars.iv151 = phi i64 [ 0, %for.body.lr.ph ], [ %indvars.iv.next152, %for.body ]
  %arrayidx.i = getelementptr inbounds %class.regobj*, %class.regobj** %1, i64 %indvars.iv151
  %4 = load %class.regobj*, %class.regobj** %arrayidx.i, align 8, !tbaa !26
  %index = getelementptr inbounds %class.regobj, %class.regobj* %4, i64 0, i32 6
  %5 = trunc i64 %indvars.iv151 to i32
  store i32 %5, i32* %index, align 4, !tbaa !58
  %indvars.iv.next152 = add nuw nsw i64 %indvars.iv151, 1
  %cmp = icmp ult i64 %indvars.iv.next152, %2
  br i1 %cmp, label %for.body, label %for.cond3.preheader

for.cond13.preheader:                             ; preds = %for.body7, %entry, %for.cond3.preheader
  %mapmaxy = getelementptr inbounds %class.regmngobj, %class.regmngobj* %this, i64 0, i32 13
  %6 = load i32, i32* %mapmaxy, align 8, !tbaa !33
  %cmp14134 = icmp sgt i32 %6, 1
  br i1 %cmp14134, label %for.cond16.preheader.lr.ph, label %for.end66

for.cond16.preheader.lr.ph:                       ; preds = %for.cond13.preheader
  %mapmaxx = getelementptr inbounds %class.regmngobj, %class.regmngobj* %this, i64 0, i32 12
  %regionmapp.i115 = getelementptr inbounds %class.regmngobj, %class.regmngobj* %this, i64 0, i32 6
  %mapsizex.i116 = getelementptr inbounds %class.regmngobj, %class.regmngobj* %this, i64 0, i32 16
  %.pre = load i32, i32* %mapmaxx, align 4, !tbaa !32
  br label %for.cond16.preheader

for.body7:                                        ; preds = %for.body7, %for.body7.lr.ph
  %indvars.iv148 = phi i64 [ 0, %for.body7.lr.ph ], [ %indvars.iv.next149, %for.body7 ]
  %arrayidx.i98 = getelementptr inbounds %class.regobj*, %class.regobj** %3, i64 %indvars.iv148
  %7 = load %class.regobj*, %class.regobj** %arrayidx.i98, align 8, !tbaa !26
  %elemqu.i109 = getelementptr inbounds %class.regobj, %class.regobj* %7, i64 0, i32 9, i32 1
  store i32 0, i32* %elemqu.i109, align 8, !tbaa !59
  %indvars.iv.next149 = add nuw nsw i64 %indvars.iv148, 1
  %exitcond150 = icmp eq i64 %indvars.iv.next149, %wide.trip.count
  br i1 %exitcond150, label %for.cond13.preheader, label %for.body7

for.cond16.preheader:                             ; preds = %for.cond16.preheader.lr.ph, %for.inc64
  %8 = phi i32 [ %.pre, %for.cond16.preheader.lr.ph ], [ %31, %for.inc64 ]
  %indvars.iv145 = phi i32 [ 3, %for.cond16.preheader.lr.ph ], [ %indvars.iv.next146, %for.inc64 ]
  %y.0135 = phi i32 [ 1, %for.cond16.preheader.lr.ph ], [ %inc65, %for.inc64 ]
  %cmp18131 = icmp sgt i32 %8, 1
  br i1 %cmp18131, label %for.body19.lr.ph, label %for.inc64

for.body19.lr.ph:                                 ; preds = %for.cond16.preheader
  %sub21 = add nsw i32 %y.0135, -1
  br label %for.body19

for.body19:                                       ; preds = %for.body19.lr.ph, %for.inc61
  %indvars.iv143 = phi i32 [ 3, %for.body19.lr.ph ], [ %indvars.iv.next144, %for.inc61 ]
  %x.0132 = phi i32 [ 1, %for.body19.lr.ph ], [ %inc62, %for.inc61 ]
  %9 = load %class.regobj**, %class.regobj*** %regionmapp.i115, align 8, !tbaa !27
  %10 = load i32, i32* %mapsizex.i116, align 4, !tbaa !30
  %mul.i117 = mul nsw i32 %10, %y.0135
  %add.i118 = add nsw i32 %mul.i117, %x.0132
  %idxprom.i119 = sext i32 %add.i118 to i64
  %arrayidx.i120 = getelementptr inbounds %class.regobj*, %class.regobj** %9, i64 %idxprom.i119
  %11 = load %class.regobj*, %class.regobj** %arrayidx.i120, align 8, !tbaa !26
  %12 = ptrtoint %class.regobj* %11 to i64
  %tobool = icmp eq %class.regobj* %11, null
  br i1 %tobool, label %for.inc61, label %if.end

if.end:                                           ; preds = %for.body19
  %sub25 = add nsw i32 %x.0132, -1
  %elemqu37 = getelementptr inbounds %class.regobj, %class.regobj* %11, i64 0, i32 9, i32 1
  %nb1ar36 = getelementptr inbounds %class.regobj, %class.regobj* %11, i64 0, i32 9
  %ep.i110 = getelementptr inbounds %class.flexarray, %class.flexarray* %nb1ar36, i64 0, i32 0
  %maxelemqu.i100 = getelementptr inbounds %class.regobj, %class.regobj* %11, i64 0, i32 9, i32 2
  br label %for.body24

for.body24:                                       ; preds = %if.end, %for.inc58
  %y1.0130 = phi i32 [ %sub21, %if.end ], [ %inc59, %for.inc58 ]
  br label %for.body29

for.body29:                                       ; preds = %for.body24, %for.inc55
  %x1.0129 = phi i32 [ %sub25, %for.body24 ], [ %inc56, %for.inc55 ]
  %13 = load %class.regobj**, %class.regobj*** %regionmapp.i115, align 8, !tbaa !27
  %14 = load i32, i32* %mapsizex.i116, align 4, !tbaa !30
  %mul.i = mul nsw i32 %14, %y1.0130
  %add.i = add nsw i32 %mul.i, %x1.0129
  %idxprom.i113 = sext i32 %add.i to i64
  %arrayidx.i114 = getelementptr inbounds %class.regobj*, %class.regobj** %13, i64 %idxprom.i113
  %15 = load %class.regobj*, %class.regobj** %arrayidx.i114, align 8, !tbaa !26
  %16 = ptrtoint %class.regobj* %15 to i64
  %tobool31 = icmp eq %class.regobj* %15, null
  %cmp33 = icmp eq %class.regobj* %11, %15
  %or.cond = or i1 %tobool31, %cmp33
  br i1 %or.cond, label %for.inc55, label %for.cond35.preheader

for.cond35.preheader:                             ; preds = %for.body29
  %17 = load i32, i32* %elemqu37, align 8, !tbaa !53
  %cmp38127 = icmp sgt i32 %17, 0
  br i1 %cmp38127, label %for.body39.lr.ph, label %if.end50.critedge

for.body39.lr.ph:                                 ; preds = %for.cond35.preheader
  %18 = load %class.regobj**, %class.regobj*** %ep.i110, align 8, !tbaa !54
  %19 = sext i32 %17 to i64
  br label %for.body39

for.cond35:                                       ; preds = %for.body39
  %cmp38 = icmp slt i64 %indvars.iv.next, %19
  br i1 %cmp38, label %for.body39, label %if.end50.critedge

for.body39:                                       ; preds = %for.body39.lr.ph, %for.cond35
  %indvars.iv = phi i64 [ 0, %for.body39.lr.ph ], [ %indvars.iv.next, %for.cond35 ]
  %arrayidx.i112 = getelementptr inbounds %class.regobj*, %class.regobj** %18, i64 %indvars.iv
  %20 = load %class.regobj*, %class.regobj** %arrayidx.i112, align 8, !tbaa !26
  %cmp42 = icmp eq %class.regobj* %20, %15
  %indvars.iv.next = add nuw nsw i64 %indvars.iv, 1
  br i1 %cmp42, label %for.inc55, label %for.cond35

if.end50.critedge:                                ; preds = %for.cond35, %for.cond35.preheader
  %21 = load i32, i32* %maxelemqu.i100, align 4, !tbaa !60
  %cmp.i101 = icmp eq i32 %17, %21
  br i1 %cmp.i101, label %if.then.i103, label %_ZN9flexarrayIP6regobjE3addERKS1_.exit108

if.then.i103:                                     ; preds = %if.end50.critedge
  tail call void @_ZN9flexarrayIP6regobjE8doublingEb(%class.flexarray* nonnull %nb1ar36, i1 true) #19
  %.pre.i102 = load i32, i32* %elemqu37, align 8, !tbaa !59
  br label %_ZN9flexarrayIP6regobjE3addERKS1_.exit108

_ZN9flexarrayIP6regobjE3addERKS1_.exit108:        ; preds = %if.end50.critedge, %if.then.i103
  %22 = phi i32 [ %.pre.i102, %if.then.i103 ], [ %17, %if.end50.critedge ]
  %23 = load %class.regobj**, %class.regobj*** %ep.i110, align 8, !tbaa !54
  %idxprom.i105 = sext i32 %22 to i64
  %arrayidx.i106 = getelementptr inbounds %class.regobj*, %class.regobj** %23, i64 %idxprom.i105
  %24 = bitcast %class.regobj** %arrayidx.i106 to i64*
  store i64 %16, i64* %24, align 8, !tbaa !26
  %inc.i107 = add nsw i32 %22, 1
  store i32 %inc.i107, i32* %elemqu37, align 8, !tbaa !59
  %nb1ar52 = getelementptr inbounds %class.regobj, %class.regobj* %15, i64 0, i32 9
  %elemqu.i = getelementptr inbounds %class.regobj, %class.regobj* %15, i64 0, i32 9, i32 1
  %25 = load i32, i32* %elemqu.i, align 8, !tbaa !59
  %maxelemqu.i = getelementptr inbounds %class.regobj, %class.regobj* %15, i64 0, i32 9, i32 2
  %26 = load i32, i32* %maxelemqu.i, align 4, !tbaa !60
  %cmp.i = icmp eq i32 %25, %26
  br i1 %cmp.i, label %if.then.i, label %_ZN9flexarrayIP6regobjE3addERKS1_.exit

if.then.i:                                        ; preds = %_ZN9flexarrayIP6regobjE3addERKS1_.exit108
  tail call void @_ZN9flexarrayIP6regobjE8doublingEb(%class.flexarray* nonnull %nb1ar52, i1 true) #19
  %.pre.i = load i32, i32* %elemqu.i, align 8, !tbaa !59
  br label %_ZN9flexarrayIP6regobjE3addERKS1_.exit

_ZN9flexarrayIP6regobjE3addERKS1_.exit:           ; preds = %_ZN9flexarrayIP6regobjE3addERKS1_.exit108, %if.then.i
  %27 = phi i32 [ %.pre.i, %if.then.i ], [ %25, %_ZN9flexarrayIP6regobjE3addERKS1_.exit108 ]
  %ep.i93 = getelementptr inbounds %class.flexarray, %class.flexarray* %nb1ar52, i64 0, i32 0
  %28 = load %class.regobj**, %class.regobj*** %ep.i93, align 8, !tbaa !54
  %idxprom.i94 = sext i32 %27 to i64
  %arrayidx.i95 = getelementptr inbounds %class.regobj*, %class.regobj** %28, i64 %idxprom.i94
  %29 = bitcast %class.regobj** %arrayidx.i95 to i64*
  store i64 %12, i64* %29, align 8, !tbaa !26
  %inc.i = add nsw i32 %27, 1
  store i32 %inc.i, i32* %elemqu.i, align 8, !tbaa !59
  br label %for.inc55

for.inc55:                                        ; preds = %for.body39, %for.body29, %_ZN9flexarrayIP6regobjE3addERKS1_.exit
  %inc56 = add nuw i32 %x1.0129, 1
  %exitcond = icmp eq i32 %inc56, %indvars.iv143
  br i1 %exitcond, label %for.inc58, label %for.body29

for.inc58:                                        ; preds = %for.inc55
  %inc59 = add nuw i32 %y1.0130, 1
  %exitcond147 = icmp eq i32 %inc59, %indvars.iv145
  br i1 %exitcond147, label %for.inc61, label %for.body24

for.inc61:                                        ; preds = %for.inc58, %for.body19
  %inc62 = add nuw nsw i32 %x.0132, 1
  %30 = load i32, i32* %mapmaxx, align 4, !tbaa !32
  %cmp18 = icmp slt i32 %inc62, %30
  %indvars.iv.next144 = add nuw i32 %indvars.iv143, 1
  br i1 %cmp18, label %for.body19, label %for.inc64

for.inc64:                                        ; preds = %for.inc61, %for.cond16.preheader
  %31 = phi i32 [ %8, %for.cond16.preheader ], [ %30, %for.inc61 ]
  %inc65 = add nuw nsw i32 %y.0135, 1
  %32 = load i32, i32* %mapmaxy, align 8, !tbaa !33
  %cmp14 = icmp slt i32 %inc65, %32
  %indvars.iv.next146 = add nuw i32 %indvars.iv145, 1
  br i1 %cmp14, label %for.cond16.preheader, label %for.end66

for.end66:                                        ; preds = %for.inc64, %for.cond13.preheader
  ret void
}

; Function Attrs: nofree nounwind optsize
declare dso_local i32 @printf(i8* nocapture readonly, ...) local_unnamed_addr #2

; Function Attrs: nofree norecurse nounwind optsize
define dso_local void @_ZN9regmngobj20definemiddleregpointEv(%class.regmngobj* nocapture readonly %this) local_unnamed_addr #9 align 2 {
entry:
  %rarp = getelementptr inbounds %class.regmngobj, %class.regmngobj* %this, i64 0, i32 18
  %elemqu = getelementptr inbounds %class.regmngobj, %class.regmngobj* %this, i64 0, i32 18, i32 4
  %0 = load i32, i32* %elemqu, align 8, !tbaa !25
  %cmp102 = icmp sgt i32 %0, 0
  br i1 %cmp102, label %for.body.lr.ph, label %for.cond8.preheader

for.body.lr.ph:                                   ; preds = %entry
  %ep.i = getelementptr inbounds %class.largesolidarray, %class.largesolidarray* %rarp, i64 0, i32 0
  %1 = load %class.regobj**, %class.regobj*** %ep.i, align 8, !tbaa !17
  %2 = zext i32 %0 to i64
  br label %for.body

for.cond8.preheader:                              ; preds = %for.body, %entry
  %mapmaxy = getelementptr inbounds %class.regmngobj, %class.regmngobj* %this, i64 0, i32 13
  %3 = load i32, i32* %mapmaxy, align 8, !tbaa !33
  %cmp999 = icmp slt i32 %3, 0
  br i1 %cmp999, label %for.cond26.preheader, label %for.cond11.preheader.lr.ph

for.cond11.preheader.lr.ph:                       ; preds = %for.cond8.preheader
  %mapmaxx = getelementptr inbounds %class.regmngobj, %class.regmngobj* %this, i64 0, i32 12
  %4 = load i32, i32* %mapmaxx, align 4, !tbaa !32
  %cmp1296 = icmp slt i32 %4, 0
  %regionmapp.i = getelementptr inbounds %class.regmngobj, %class.regmngobj* %this, i64 0, i32 6
  %mapsizex.i = getelementptr inbounds %class.regmngobj, %class.regmngobj* %this, i64 0, i32 16
  %5 = zext i32 %4 to i64
  br label %for.cond11.preheader

for.body:                                         ; preds = %for.body.lr.ph, %for.body
  %indvars.iv108 = phi i64 [ 0, %for.body.lr.ph ], [ %indvars.iv.next109, %for.body ]
  %arrayidx.i = getelementptr inbounds %class.regobj*, %class.regobj** %1, i64 %indvars.iv108
  %6 = load %class.regobj*, %class.regobj** %arrayidx.i, align 8, !tbaa !26
  %x3 = getelementptr inbounds %class.regobj, %class.regobj* %6, i64 0, i32 5, i32 0
  store i32 0, i32* %x3, align 4, !tbaa !47
  %y7 = getelementptr inbounds %class.regobj, %class.regobj* %6, i64 0, i32 5, i32 1
  store i32 0, i32* %y7, align 4, !tbaa !48
  %indvars.iv.next109 = add nuw nsw i64 %indvars.iv108, 1
  %cmp = icmp ult i64 %indvars.iv.next109, %2
  br i1 %cmp, label %for.body, label %for.cond8.preheader

for.cond11.preheader:                             ; preds = %for.inc23, %for.cond11.preheader.lr.ph
  %y.0100 = phi i32 [ 0, %for.cond11.preheader.lr.ph ], [ %inc24, %for.inc23 ]
  br i1 %cmp1296, label %for.inc23, label %for.body13.lr.ph

for.body13.lr.ph:                                 ; preds = %for.cond11.preheader
  %7 = load %class.regobj**, %class.regobj*** %regionmapp.i, align 8, !tbaa !27
  %8 = load i32, i32* %mapsizex.i, align 4, !tbaa !30
  %mul.i = mul nsw i32 %8, %y.0100
  %9 = sext i32 %mul.i to i64
  br label %for.body13

for.cond26.preheader:                             ; preds = %for.inc23, %for.cond8.preheader
  br i1 %cmp102, label %for.body30.lr.ph, label %for.end56

for.body30.lr.ph:                                 ; preds = %for.cond26.preheader
  %ep.i85 = getelementptr inbounds %class.largesolidarray, %class.largesolidarray* %rarp, i64 0, i32 0
  %10 = load %class.regobj**, %class.regobj*** %ep.i85, align 8, !tbaa !17
  %wide.trip.count = zext i32 %0 to i64
  br label %for.body30

for.body13:                                       ; preds = %for.inc20, %for.body13.lr.ph
  %indvars.iv105 = phi i64 [ %indvars.iv.next106, %for.inc20 ], [ 0, %for.body13.lr.ph ]
  %11 = add nsw i64 %indvars.iv105, %9
  %arrayidx.i90 = getelementptr inbounds %class.regobj*, %class.regobj** %7, i64 %11
  %12 = load %class.regobj*, %class.regobj** %arrayidx.i90, align 8, !tbaa !26
  %tobool = icmp eq %class.regobj* %12, null
  br i1 %tobool, label %for.inc20, label %if.then

if.then:                                          ; preds = %for.body13
  %x16 = getelementptr inbounds %class.regobj, %class.regobj* %12, i64 0, i32 5, i32 0
  %13 = load i32, i32* %x16, align 4, !tbaa !47
  %14 = trunc i64 %indvars.iv105 to i32
  %add = add nsw i32 %13, %14
  store i32 %add, i32* %x16, align 4, !tbaa !47
  %y18 = getelementptr inbounds %class.regobj, %class.regobj* %12, i64 0, i32 5, i32 1
  %15 = load i32, i32* %y18, align 4, !tbaa !48
  %add19 = add nsw i32 %15, %y.0100
  store i32 %add19, i32* %y18, align 4, !tbaa !48
  br label %for.inc20

for.inc20:                                        ; preds = %for.body13, %if.then
  %indvars.iv.next106 = add nuw nsw i64 %indvars.iv105, 1
  %cmp12 = icmp ult i64 %indvars.iv105, %5
  br i1 %cmp12, label %for.body13, label %for.inc23

for.inc23:                                        ; preds = %for.inc20, %for.cond11.preheader
  %inc24 = add nuw nsw i32 %y.0100, 1
  %cmp9 = icmp slt i32 %y.0100, %3
  br i1 %cmp9, label %for.cond11.preheader, label %for.cond26.preheader

for.body30:                                       ; preds = %for.inc54, %for.body30.lr.ph
  %indvars.iv = phi i64 [ 0, %for.body30.lr.ph ], [ %indvars.iv.next, %for.inc54 ]
  %arrayidx.i87 = getelementptr inbounds %class.regobj*, %class.regobj** %10, i64 %indvars.iv
  %16 = load %class.regobj*, %class.regobj** %arrayidx.i87, align 8, !tbaa !26
  %square = getelementptr inbounds %class.regobj, %class.regobj* %16, i64 0, i32 4
  %17 = load i32, i32* %square, align 8, !tbaa !36
  %cmp33 = icmp sgt i32 %17, 0
  br i1 %cmp33, label %if.then34, label %for.inc54

if.then34:                                        ; preds = %for.body30
  %x36 = getelementptr inbounds %class.regobj, %class.regobj* %16, i64 0, i32 5, i32 0
  %18 = load i32, i32* %x36, align 4, !tbaa !47
  %conv = sitofp i32 %18 to double
  %conv38 = sitofp i32 %17 to double
  %div = fdiv double %conv, %conv38
  %conv39 = fptrunc double %div to float
  %add.i83 = fadd float %conv39, 5.000000e-01
  %conv.i84 = fptosi float %add.i83 to i32
  store i32 %conv.i84, i32* %x36, align 4, !tbaa !47
  %y44 = getelementptr inbounds %class.regobj, %class.regobj* %16, i64 0, i32 5, i32 1
  %19 = load i32, i32* %y44, align 4, !tbaa !48
  %conv45 = sitofp i32 %19 to double
  %div48 = fdiv double %conv45, %conv38
  %conv49 = fptrunc double %div48 to float
  %add.i = fadd float %conv49, 5.000000e-01
  %conv.i = fptosi float %add.i to i32
  store i32 %conv.i, i32* %y44, align 4, !tbaa !48
  br label %for.inc54

for.inc54:                                        ; preds = %for.body30, %if.then34
  %indvars.iv.next = add nuw nsw i64 %indvars.iv, 1
  %exitcond = icmp eq i64 %indvars.iv.next, %wide.trip.count
  br i1 %exitcond, label %for.end56, label %for.body30

for.end56:                                        ; preds = %for.inc54, %for.cond26.preheader
  ret void
}

; Function Attrs: optsize
define dso_local void @_ZN9regmngobj20normalizemiddlepointEv(%class.regmngobj* %this) local_unnamed_addr #0 align 2 {
entry:
  %x = alloca i32, align 4
  %y = alloca i32, align 4
  %0 = bitcast i32* %x to i8*
  call void @llvm.lifetime.start.p0i8(i64 4, i8* nonnull %0) #21
  %1 = bitcast i32* %y to i8*
  call void @llvm.lifetime.start.p0i8(i64 4, i8* nonnull %1) #21
  %elemqu = getelementptr inbounds %class.regmngobj, %class.regmngobj* %this, i64 0, i32 18, i32 4
  %2 = load i32, i32* %elemqu, align 8, !tbaa !25
  %cmp18 = icmp sgt i32 %2, 0
  br i1 %cmp18, label %for.body.lr.ph, label %for.end

for.body.lr.ph:                                   ; preds = %entry
  %ep.i = getelementptr inbounds %class.regmngobj, %class.regmngobj* %this, i64 0, i32 18, i32 0
  br label %for.body

for.body:                                         ; preds = %for.body.lr.ph, %for.inc
  %indvars.iv = phi i64 [ 0, %for.body.lr.ph ], [ %indvars.iv.next, %for.inc ]
  %3 = load %class.regobj**, %class.regobj*** %ep.i, align 8, !tbaa !17
  %arrayidx.i = getelementptr inbounds %class.regobj*, %class.regobj** %3, i64 %indvars.iv
  %4 = load %class.regobj*, %class.regobj** %arrayidx.i, align 8, !tbaa !26
  %x3 = getelementptr inbounds %class.regobj, %class.regobj* %4, i64 0, i32 5, i32 0
  %5 = load i32, i32* %x3, align 4, !tbaa !47
  %y5 = getelementptr inbounds %class.regobj, %class.regobj* %4, i64 0, i32 5, i32 1
  %6 = load i32, i32* %y5, align 4, !tbaa !48
  %call6 = call i1 @_ZN9regmngobj13findfreeplaceEiiRiS0_(%class.regmngobj* nonnull %this, i32 %5, i32 %6, i32* nonnull dereferenceable(4) %x, i32* nonnull dereferenceable(4) %y) #19
  br i1 %call6, label %if.then, label %for.inc

if.then:                                          ; preds = %for.body
  %7 = load i32, i32* %x, align 4, !tbaa !24
  store i32 %7, i32* %x3, align 4, !tbaa !47
  %8 = load i32, i32* %y, align 4, !tbaa !24
  store i32 %8, i32* %y5, align 4, !tbaa !48
  br label %for.inc

for.inc:                                          ; preds = %for.body, %if.then
  %indvars.iv.next = add nuw nsw i64 %indvars.iv, 1
  %9 = load i32, i32* %elemqu, align 8, !tbaa !25
  %10 = sext i32 %9 to i64
  %cmp = icmp slt i64 %indvars.iv.next, %10
  br i1 %cmp, label %for.body, label %for.end

for.end:                                          ; preds = %for.inc, %entry
  call void @llvm.lifetime.end.p0i8(i64 4, i8* nonnull %1) #21
  call void @llvm.lifetime.end.p0i8(i64 4, i8* nonnull %0) #21
  ret void
}

; Function Attrs: nounwind optsize
define linkonce_odr dso_local void @_ZN9flexarrayIP6regobjE8doublingEb(%class.flexarray* %this, i1 %flcopy) local_unnamed_addr #8 comdat align 2 {
entry:
  %maxelemqu = getelementptr inbounds %class.flexarray, %class.flexarray* %this, i64 0, i32 2
  %0 = load i32, i32* %maxelemqu, align 4, !tbaa !60
  %shl = shl i32 %0, 1
  %mul = shl i32 %0, 4
  %conv.i = sext i32 %mul to i64
  %call.i = tail call noalias i8* @malloc(i64 %conv.i) #20
  %1 = bitcast %class.flexarray* %this to i8**
  %2 = load i8*, i8** %1, align 8, !tbaa !54
  br i1 %flcopy, label %if.then, label %if.end

if.then:                                          ; preds = %entry
  %conv4 = sext i32 %0 to i64
  %mul5 = shl nsw i64 %conv4, 3
  tail call void @llvm.memcpy.p0i8.p0i8.i64(i8* align 8 %call.i, i8* align 8 %2, i64 %mul5, i1 false)
  br label %if.end

if.end:                                           ; preds = %entry, %if.then
  tail call void @free(i8* %2) #20
  store i8* %call.i, i8** %1, align 8, !tbaa !54
  store i32 %shl, i32* %maxelemqu, align 4, !tbaa !60
  ret void
}

; Function Attrs: nofree norecurse nounwind optsize
define dso_local i32 @_ZN9regmngobj13getregfillnumEv(%class.regmngobj* nocapture %this) local_unnamed_addr #9 align 2 {
entry:
  %regfillnum = getelementptr inbounds %class.regmngobj, %class.regmngobj* %this, i64 0, i32 5
  %0 = load i32, i32* %regfillnum, align 8, !tbaa !14
  %inc = add nsw i32 %0, 1
  %cmp = icmp eq i32 %inc, 1073741824
  %spec.select = select i1 %cmp, i32 1, i32 %inc
  store i32 %spec.select, i32* %regfillnum, align 8, !tbaa !14
  %elemqu = getelementptr inbounds %class.regmngobj, %class.regmngobj* %this, i64 0, i32 18, i32 4
  %1 = load i32, i32* %elemqu, align 8, !tbaa !25
  %cmp411 = icmp sgt i32 %1, 0
  br i1 %cmp411, label %for.body.lr.ph, label %for.end

for.body.lr.ph:                                   ; preds = %entry
  %ep.i = getelementptr inbounds %class.regmngobj, %class.regmngobj* %this, i64 0, i32 18, i32 0
  %2 = load %class.regobj**, %class.regobj*** %ep.i, align 8, !tbaa !17
  %3 = zext i32 %1 to i64
  br label %for.body

for.body:                                         ; preds = %for.body.lr.ph, %for.body
  %indvars.iv = phi i64 [ 0, %for.body.lr.ph ], [ %indvars.iv.next, %for.body ]
  %arrayidx.i = getelementptr inbounds %class.regobj*, %class.regobj** %2, i64 %indvars.iv
  %4 = load %class.regobj*, %class.regobj** %arrayidx.i, align 8, !tbaa !26
  %fillnum = getelementptr inbounds %class.regobj, %class.regobj* %4, i64 0, i32 7
  store i32 0, i32* %fillnum, align 8, !tbaa !57
  %indvars.iv.next = add nuw nsw i64 %indvars.iv, 1
  %cmp4 = icmp ult i64 %indvars.iv.next, %3
  br i1 %cmp4, label %for.body, label %for.end

for.end:                                          ; preds = %for.body, %entry
  ret i32 %spec.select
}

; Function Attrs: nofree nounwind optsize
define dso_local void @_ZN6wayobj9addsphereERK8rvectortf(%class.wayobj* nocapture readonly %this, %class.rvectort* nocapture readonly dereferenceable(12) %centerp, float %radius) local_unnamed_addr #11 align 2 {
entry:
  %y3 = getelementptr inbounds %class.rvectort, %class.rvectort* %centerp, i64 0, i32 1
  %0 = load float, float* %y3, align 4, !tbaa !61
  %height2 = getelementptr inbounds %class.wayobj, %class.wayobj* %this, i64 0, i32 14, i32 7
  %1 = load float, float* %height2, align 4, !tbaa !63
  %cmp = fcmp ult float %0, %1
  br i1 %cmp, label %if.else, label %if.then

if.then:                                          ; preds = %entry
  %sub = fsub float %0, %1
  %2 = fneg float %sub
  %neg = fmul float %sub, %2
  %3 = tail call float @llvm.fmuladd.f32(float %radius, float %radius, float %neg)
  %cmp7 = fcmp ugt float %3, 0.000000e+00
  br i1 %cmp7, label %if.end25.sink.split, label %cleanup

if.else:                                          ; preds = %entry
  %height1 = getelementptr inbounds %class.wayobj, %class.wayobj* %this, i64 0, i32 14, i32 6
  %4 = load float, float* %height1, align 8, !tbaa !67
  %cmp12 = fcmp ugt float %0, %4
  br i1 %cmp12, label %if.end25, label %if.then13

if.then13:                                        ; preds = %if.else
  %sub17 = fsub float %4, %0
  %5 = fneg float %sub17
  %neg19 = fmul float %sub17, %5
  %6 = tail call float @llvm.fmuladd.f32(float %radius, float %radius, float %neg19)
  %cmp20 = fcmp ugt float %6, 0.000000e+00
  br i1 %cmp20, label %if.end25.sink.split, label %cleanup

if.end25.sink.split:                              ; preds = %if.then13, %if.then
  %.sink = phi float [ %3, %if.then ], [ %6, %if.then13 ]
  %call.i = tail call float @sqrtf(float %.sink) #20
  br label %if.end25

if.end25:                                         ; preds = %if.end25.sink.split, %if.else
  %radius.addr.0 = phi float [ %radius, %if.else ], [ %call.i, %if.end25.sink.split ]
  %x26 = getelementptr inbounds %class.rvectort, %class.rvectort* %centerp, i64 0, i32 0
  %7 = load float, float* %x26, align 4, !tbaa !68
  %sub27 = fsub float %7, %radius.addr.0
  %cellr = getelementptr inbounds %class.wayobj, %class.wayobj* %this, i64 0, i32 13
  %8 = load float, float* %cellr, align 4, !tbaa !69
  %sub28 = fsub float %sub27, %8
  %xcoef1 = getelementptr inbounds %class.wayobj, %class.wayobj* %this, i64 0, i32 9
  %9 = load float, float* %xcoef1, align 4, !tbaa !70
  %xcoef2 = getelementptr inbounds %class.wayobj, %class.wayobj* %this, i64 0, i32 10
  %10 = load float, float* %xcoef2, align 8, !tbaa !71
  %11 = tail call float @llvm.fmuladd.f32(float %sub28, float %9, float %10)
  %conv = fptosi float %11 to i32
  %z = getelementptr inbounds %class.rvectort, %class.rvectort* %centerp, i64 0, i32 2
  %12 = load float, float* %z, align 4, !tbaa !72
  %sub29 = fsub float %12, %radius.addr.0
  %sub31 = fsub float %sub29, %8
  %ycoef1 = getelementptr inbounds %class.wayobj, %class.wayobj* %this, i64 0, i32 11
  %13 = load float, float* %ycoef1, align 4, !tbaa !73
  %ycoef2 = getelementptr inbounds %class.wayobj, %class.wayobj* %this, i64 0, i32 12
  %14 = load float, float* %ycoef2, align 8, !tbaa !74
  %15 = tail call float @llvm.fmuladd.f32(float %sub31, float %13, float %14)
  %conv32 = fptosi float %15 to i32
  %add = fadd float %radius.addr.0, %7
  %add35 = fadd float %add, %8
  %16 = tail call float @llvm.fmuladd.f32(float %add35, float %9, float %10)
  %conv38 = fptosi float %16 to i32
  %add40 = fadd float %radius.addr.0, %12
  %add42 = fadd float %8, %add40
  %17 = tail call float @llvm.fmuladd.f32(float %add42, float %13, float %14)
  %conv45 = fptosi float %17 to i32
  %mapmaxx1 = getelementptr inbounds %class.wayobj, %class.wayobj* %this, i64 0, i32 5
  %18 = load i32, i32* %mapmaxx1, align 4, !tbaa !75
  %cmp46 = icmp slt i32 %18, %conv
  br i1 %cmp46, label %cleanup, label %if.end48

if.end48:                                         ; preds = %if.end25
  %mapmaxy1 = getelementptr inbounds %class.wayobj, %class.wayobj* %this, i64 0, i32 6
  %19 = load i32, i32* %mapmaxy1, align 8, !tbaa !76
  %cmp49 = icmp slt i32 %19, %conv32
  %cmp52 = icmp slt i32 %conv38, 1
  %or.cond = or i1 %cmp52, %cmp49
  %cmp55 = icmp slt i32 %conv45, 1
  %or.cond179 = or i1 %cmp55, %or.cond
  br i1 %or.cond179, label %cleanup, label %if.end57

if.end57:                                         ; preds = %if.end48
  %20 = icmp sgt i32 %conv, 1
  %spec.select = select i1 %20, i32 %conv, i32 1
  %21 = icmp sgt i32 %conv32, 1
  %y1.0 = select i1 %21, i32 %conv32, i32 1
  %cmp65 = icmp slt i32 %18, %conv38
  %spec.select178 = select i1 %cmp65, i32 %18, i32 %conv38
  %cmp70 = icmp slt i32 %19, %conv45
  %y2.0 = select i1 %cmp70, i32 %19, i32 %conv45
  %add75 = fadd float %radius.addr.0, %8
  %mul.i182 = fmul float %add75, %add75
  %cmp77188 = icmp sgt i32 %y1.0, %y2.0
  br i1 %cmp77188, label %cleanup, label %for.cond78.preheader.lr.ph

for.cond78.preheader.lr.ph:                       ; preds = %if.end57
  %cmp79185 = icmp sgt i32 %spec.select, %spec.select178
  %minx = getelementptr inbounds %class.wayobj, %class.wayobj* %this, i64 0, i32 14, i32 0
  %maxx = getelementptr inbounds %class.wayobj, %class.wayobj* %this, i64 0, i32 14, i32 1
  %maplx = getelementptr inbounds %class.wayobj, %class.wayobj* %this, i64 0, i32 7
  %miny = getelementptr inbounds %class.wayobj, %class.wayobj* %this, i64 0, i32 14, i32 2
  %maxy = getelementptr inbounds %class.wayobj, %class.wayobj* %this, i64 0, i32 14, i32 3
  %maply = getelementptr inbounds %class.wayobj, %class.wayobj* %this, i64 0, i32 8
  %maparp = getelementptr inbounds %class.wayobj, %class.wayobj* %this, i64 0, i32 17
  %shift = getelementptr inbounds %class.wayobj, %class.wayobj* %this, i64 0, i32 2
  br label %for.cond78.preheader

for.cond78.preheader:                             ; preds = %for.inc114, %for.cond78.preheader.lr.ph
  %y.0189 = phi i32 [ %y1.0, %for.cond78.preheader.lr.ph ], [ %inc115, %for.inc114 ]
  br i1 %cmp79185, label %for.inc114, label %for.body80.lr.ph

for.body80.lr.ph:                                 ; preds = %for.cond78.preheader
  %22 = load float, float* %minx, align 8, !tbaa !77
  %add83 = fadd float %8, %22
  %23 = load float, float* %maxx, align 4, !tbaa !78
  %sub88 = fsub float %23, %22
  %24 = load i32, i32* %maplx, align 4, !tbaa !79
  %conv89 = sitofp i32 %24 to float
  %25 = load float, float* %miny, align 8, !tbaa !80
  %add93 = fadd float %8, %25
  %conv94 = sitofp i32 %y.0189 to float
  %26 = load float, float* %maxy, align 4, !tbaa !81
  %sub98 = fsub float %26, %25
  %mul99 = fmul float %sub98, %conv94
  %27 = load i32, i32* %maply, align 8, !tbaa !82
  %conv100 = sitofp i32 %27 to float
  %div101 = fdiv float %mul99, %conv100
  %add102 = fadd float %add93, %div101
  %sub107 = fsub float %12, %add102
  %mul.i180 = fmul float %sub107, %sub107
  br label %for.body80

for.body80:                                       ; preds = %for.inc, %for.body80.lr.ph
  %x.0186 = phi i32 [ %spec.select, %for.body80.lr.ph ], [ %inc113, %for.inc ]
  %conv84 = sitofp i32 %x.0186 to float
  %mul = fmul float %sub88, %conv84
  %div = fdiv float %mul, %conv89
  %add90 = fadd float %add83, %div
  %sub104 = fsub float %7, %add90
  %mul.i181 = fmul float %sub104, %sub104
  %add109 = fadd float %mul.i181, %mul.i180
  %cmp110 = fcmp olt float %add109, %mul.i182
  br i1 %cmp110, label %if.then111, label %for.inc

if.then111:                                       ; preds = %for.body80
  %28 = load i16*, i16** %maparp, align 8, !tbaa !83
  %29 = load i32, i32* %shift, align 8, !tbaa !84
  %shl = shl i32 %y.0189, %29
  %or = or i32 %shl, %x.0186
  %idxprom = sext i32 %or to i64
  %arrayidx = getelementptr inbounds i16, i16* %28, i64 %idxprom
  %30 = load i16, i16* %arrayidx, align 2, !tbaa !85
  %inc = add i16 %30, 1
  store i16 %inc, i16* %arrayidx, align 2, !tbaa !85
  br label %for.inc

for.inc:                                          ; preds = %for.body80, %if.then111
  %inc113 = add nuw nsw i32 %x.0186, 1
  %cmp79 = icmp slt i32 %x.0186, %spec.select178
  br i1 %cmp79, label %for.body80, label %for.inc114

for.inc114:                                       ; preds = %for.inc, %for.cond78.preheader
  %inc115 = add nuw nsw i32 %y.0189, 1
  %cmp77 = icmp slt i32 %y.0189, %y2.0
  br i1 %cmp77, label %for.cond78.preheader, label %cleanup

cleanup:                                          ; preds = %for.inc114, %if.end57, %if.end48, %if.end25, %if.then13, %if.then
  ret void
}

; Function Attrs: nounwind readnone speculatable willreturn
declare float @llvm.fmuladd.f32(float, float, float) #12

; Function Attrs: nofree nounwind optsize
declare dso_local float @sqrtf(float) local_unnamed_addr #2

; Function Attrs: nofree nounwind optsize
define dso_local void @_ZN6wayobj12removesphereERK8rvectortf(%class.wayobj* nocapture readonly %this, %class.rvectort* nocapture readonly dereferenceable(12) %centerp, float %radius) local_unnamed_addr #11 align 2 {
entry:
  %y3 = getelementptr inbounds %class.rvectort, %class.rvectort* %centerp, i64 0, i32 1
  %0 = load float, float* %y3, align 4, !tbaa !61
  %height2 = getelementptr inbounds %class.wayobj, %class.wayobj* %this, i64 0, i32 14, i32 7
  %1 = load float, float* %height2, align 4, !tbaa !63
  %cmp = fcmp ult float %0, %1
  br i1 %cmp, label %if.else, label %if.then

if.then:                                          ; preds = %entry
  %sub = fsub float %0, %1
  %2 = fneg float %sub
  %neg = fmul float %sub, %2
  %3 = tail call float @llvm.fmuladd.f32(float %radius, float %radius, float %neg)
  %cmp7 = fcmp ugt float %3, 0.000000e+00
  br i1 %cmp7, label %if.end25.sink.split, label %cleanup

if.else:                                          ; preds = %entry
  %height1 = getelementptr inbounds %class.wayobj, %class.wayobj* %this, i64 0, i32 14, i32 6
  %4 = load float, float* %height1, align 8, !tbaa !67
  %cmp12 = fcmp ugt float %0, %4
  br i1 %cmp12, label %if.end25, label %if.then13

if.then13:                                        ; preds = %if.else
  %sub17 = fsub float %4, %0
  %5 = fneg float %sub17
  %neg19 = fmul float %sub17, %5
  %6 = tail call float @llvm.fmuladd.f32(float %radius, float %radius, float %neg19)
  %cmp20 = fcmp ugt float %6, 0.000000e+00
  br i1 %cmp20, label %if.end25.sink.split, label %cleanup

if.end25.sink.split:                              ; preds = %if.then13, %if.then
  %.sink = phi float [ %3, %if.then ], [ %6, %if.then13 ]
  %call.i = tail call float @sqrtf(float %.sink) #20
  br label %if.end25

if.end25:                                         ; preds = %if.end25.sink.split, %if.else
  %radius.addr.0 = phi float [ %radius, %if.else ], [ %call.i, %if.end25.sink.split ]
  %x26 = getelementptr inbounds %class.rvectort, %class.rvectort* %centerp, i64 0, i32 0
  %7 = load float, float* %x26, align 4, !tbaa !68
  %sub27 = fsub float %7, %radius.addr.0
  %cellr = getelementptr inbounds %class.wayobj, %class.wayobj* %this, i64 0, i32 13
  %8 = load float, float* %cellr, align 4, !tbaa !69
  %sub28 = fsub float %sub27, %8
  %xcoef1 = getelementptr inbounds %class.wayobj, %class.wayobj* %this, i64 0, i32 9
  %9 = load float, float* %xcoef1, align 4, !tbaa !70
  %xcoef2 = getelementptr inbounds %class.wayobj, %class.wayobj* %this, i64 0, i32 10
  %10 = load float, float* %xcoef2, align 8, !tbaa !71
  %11 = tail call float @llvm.fmuladd.f32(float %sub28, float %9, float %10)
  %conv = fptosi float %11 to i32
  %z = getelementptr inbounds %class.rvectort, %class.rvectort* %centerp, i64 0, i32 2
  %12 = load float, float* %z, align 4, !tbaa !72
  %sub29 = fsub float %12, %radius.addr.0
  %sub31 = fsub float %sub29, %8
  %ycoef1 = getelementptr inbounds %class.wayobj, %class.wayobj* %this, i64 0, i32 11
  %13 = load float, float* %ycoef1, align 4, !tbaa !73
  %ycoef2 = getelementptr inbounds %class.wayobj, %class.wayobj* %this, i64 0, i32 12
  %14 = load float, float* %ycoef2, align 8, !tbaa !74
  %15 = tail call float @llvm.fmuladd.f32(float %sub31, float %13, float %14)
  %conv32 = fptosi float %15 to i32
  %add = fadd float %radius.addr.0, %7
  %add35 = fadd float %add, %8
  %16 = tail call float @llvm.fmuladd.f32(float %add35, float %9, float %10)
  %conv38 = fptosi float %16 to i32
  %add40 = fadd float %radius.addr.0, %12
  %add42 = fadd float %8, %add40
  %17 = tail call float @llvm.fmuladd.f32(float %add42, float %13, float %14)
  %conv45 = fptosi float %17 to i32
  %mapmaxx1 = getelementptr inbounds %class.wayobj, %class.wayobj* %this, i64 0, i32 5
  %18 = load i32, i32* %mapmaxx1, align 4, !tbaa !75
  %cmp46 = icmp slt i32 %18, %conv
  br i1 %cmp46, label %cleanup, label %if.end48

if.end48:                                         ; preds = %if.end25
  %mapmaxy1 = getelementptr inbounds %class.wayobj, %class.wayobj* %this, i64 0, i32 6
  %19 = load i32, i32* %mapmaxy1, align 8, !tbaa !76
  %cmp49 = icmp slt i32 %19, %conv32
  %cmp52 = icmp slt i32 %conv38, 1
  %or.cond = or i1 %cmp52, %cmp49
  %cmp55 = icmp slt i32 %conv45, 1
  %or.cond178 = or i1 %cmp55, %or.cond
  br i1 %or.cond178, label %cleanup, label %if.end57

if.end57:                                         ; preds = %if.end48
  %20 = icmp sgt i32 %conv, 1
  %spec.select = select i1 %20, i32 %conv, i32 1
  %21 = icmp sgt i32 %conv32, 1
  %y1.0 = select i1 %21, i32 %conv32, i32 1
  %cmp65 = icmp slt i32 %18, %conv38
  %spec.select177 = select i1 %cmp65, i32 %18, i32 %conv38
  %cmp70 = icmp slt i32 %19, %conv45
  %y2.0 = select i1 %cmp70, i32 %19, i32 %conv45
  %add75 = fadd float %radius.addr.0, %8
  %mul.i181 = fmul float %add75, %add75
  %cmp77187 = icmp sgt i32 %y1.0, %y2.0
  br i1 %cmp77187, label %cleanup, label %for.cond78.preheader.lr.ph

for.cond78.preheader.lr.ph:                       ; preds = %if.end57
  %cmp79184 = icmp sgt i32 %spec.select, %spec.select177
  %minx = getelementptr inbounds %class.wayobj, %class.wayobj* %this, i64 0, i32 14, i32 0
  %maxx = getelementptr inbounds %class.wayobj, %class.wayobj* %this, i64 0, i32 14, i32 1
  %maplx = getelementptr inbounds %class.wayobj, %class.wayobj* %this, i64 0, i32 7
  %miny = getelementptr inbounds %class.wayobj, %class.wayobj* %this, i64 0, i32 14, i32 2
  %maxy = getelementptr inbounds %class.wayobj, %class.wayobj* %this, i64 0, i32 14, i32 3
  %maply = getelementptr inbounds %class.wayobj, %class.wayobj* %this, i64 0, i32 8
  %maparp = getelementptr inbounds %class.wayobj, %class.wayobj* %this, i64 0, i32 17
  %shift = getelementptr inbounds %class.wayobj, %class.wayobj* %this, i64 0, i32 2
  br label %for.cond78.preheader

for.cond78.preheader:                             ; preds = %for.inc113, %for.cond78.preheader.lr.ph
  %y.0188 = phi i32 [ %y1.0, %for.cond78.preheader.lr.ph ], [ %inc114, %for.inc113 ]
  br i1 %cmp79184, label %for.inc113, label %for.body80.lr.ph

for.body80.lr.ph:                                 ; preds = %for.cond78.preheader
  %22 = load float, float* %minx, align 8, !tbaa !77
  %add83 = fadd float %8, %22
  %23 = load float, float* %maxx, align 4, !tbaa !78
  %sub88 = fsub float %23, %22
  %24 = load i32, i32* %maplx, align 4, !tbaa !79
  %conv89 = sitofp i32 %24 to float
  %25 = load float, float* %miny, align 8, !tbaa !80
  %add93 = fadd float %8, %25
  %conv94 = sitofp i32 %y.0188 to float
  %26 = load float, float* %maxy, align 4, !tbaa !81
  %sub98 = fsub float %26, %25
  %mul99 = fmul float %sub98, %conv94
  %27 = load i32, i32* %maply, align 8, !tbaa !82
  %conv100 = sitofp i32 %27 to float
  %div101 = fdiv float %mul99, %conv100
  %add102 = fadd float %add93, %div101
  %sub107 = fsub float %12, %add102
  %mul.i179 = fmul float %sub107, %sub107
  br label %for.body80

for.body80:                                       ; preds = %for.inc, %for.body80.lr.ph
  %x.0185 = phi i32 [ %spec.select, %for.body80.lr.ph ], [ %inc, %for.inc ]
  %conv84 = sitofp i32 %x.0185 to float
  %mul = fmul float %sub88, %conv84
  %div = fdiv float %mul, %conv89
  %add90 = fadd float %add83, %div
  %sub104 = fsub float %7, %add90
  %mul.i180 = fmul float %sub104, %sub104
  %add109 = fadd float %mul.i180, %mul.i179
  %cmp110 = fcmp ogt float %add109, %mul.i181
  br i1 %cmp110, label %for.inc, label %if.end112

if.end112:                                        ; preds = %for.body80
  %28 = load i16*, i16** %maparp, align 8, !tbaa !83
  %29 = load i32, i32* %shift, align 8, !tbaa !84
  %shl = shl i32 %y.0188, %29
  %or = or i32 %shl, %x.0185
  %idxprom = sext i32 %or to i64
  %arrayidx = getelementptr inbounds i16, i16* %28, i64 %idxprom
  %30 = load i16, i16* %arrayidx, align 2, !tbaa !85
  %dec = add i16 %30, -1
  store i16 %dec, i16* %arrayidx, align 2, !tbaa !85
  br label %for.inc

for.inc:                                          ; preds = %for.body80, %if.end112
  %inc = add nuw nsw i32 %x.0185, 1
  %cmp79 = icmp slt i32 %x.0185, %spec.select177
  br i1 %cmp79, label %for.body80, label %for.inc113

for.inc113:                                       ; preds = %for.inc, %for.cond78.preheader
  %inc114 = add nuw nsw i32 %y.0188, 1
  %cmp77 = icmp slt i32 %y.0188, %y2.0
  br i1 %cmp77, label %for.cond78.preheader, label %cleanup

cleanup:                                          ; preds = %for.inc113, %if.end57, %if.end48, %if.end25, %if.then13, %if.then
  ret void
}

; Function Attrs: nofree norecurse nounwind optsize
define dso_local void @_ZN6wayobj8addpointEii(%class.wayobj* nocapture readonly %this, i32 %x, i32 %y) local_unnamed_addr #9 align 2 {
entry:
  %maparp = getelementptr inbounds %class.wayobj, %class.wayobj* %this, i64 0, i32 17
  %0 = load i16*, i16** %maparp, align 8, !tbaa !83
  %shift = getelementptr inbounds %class.wayobj, %class.wayobj* %this, i64 0, i32 2
  %1 = load i32, i32* %shift, align 8, !tbaa !84
  %shl = shl i32 %y, %1
  %or = or i32 %shl, %x
  %idxprom = sext i32 %or to i64
  %arrayidx = getelementptr inbounds i16, i16* %0, i64 %idxprom
  %2 = load i16, i16* %arrayidx, align 2, !tbaa !85
  %cmp = icmp sgt i16 %2, -1
  br i1 %cmp, label %if.then, label %if.end

if.then:                                          ; preds = %entry
  %inc = add nuw i16 %2, 1
  store i16 %inc, i16* %arrayidx, align 2, !tbaa !85
  br label %if.end

if.end:                                           ; preds = %if.then, %entry
  ret void
}

; Function Attrs: nofree norecurse nounwind optsize
define dso_local void @_ZN6wayobj11removepointEii(%class.wayobj* nocapture readonly %this, i32 %x, i32 %y) local_unnamed_addr #9 align 2 {
entry:
  %maparp = getelementptr inbounds %class.wayobj, %class.wayobj* %this, i64 0, i32 17
  %0 = load i16*, i16** %maparp, align 8, !tbaa !83
  %shift = getelementptr inbounds %class.wayobj, %class.wayobj* %this, i64 0, i32 2
  %1 = load i32, i32* %shift, align 8, !tbaa !84
  %shl = shl i32 %y, %1
  %or = or i32 %shl, %x
  %idxprom = sext i32 %or to i64
  %arrayidx = getelementptr inbounds i16, i16* %0, i64 %idxprom
  %2 = load i16, i16* %arrayidx, align 2, !tbaa !85
  %cmp = icmp sgt i16 %2, -1
  br i1 %cmp, label %if.then, label %if.end

if.then:                                          ; preds = %entry
  %dec = add nsw i16 %2, -1
  store i16 %dec, i16* %arrayidx, align 2, !tbaa !85
  br label %if.end

if.end:                                           ; preds = %if.then, %entry
  ret void
}

; Function Attrs: nounwind optsize
define dso_local void @_ZN6wayobj5clearEv(%class.wayobj* nocapture readonly %this) local_unnamed_addr #8 align 2 {
entry:
  %mapxshift = getelementptr inbounds %class.wayobj, %class.wayobj* %this, i64 0, i32 0
  %0 = load i32, i32* %mapxshift, align 8, !tbaa !86
  %shl = shl nuw i32 1, %0
  %mapyshift = getelementptr inbounds %class.wayobj, %class.wayobj* %this, i64 0, i32 1
  %1 = load i32, i32* %mapyshift, align 4, !tbaa !87
  %shl2 = shl i32 %shl, %1
  %maparp = getelementptr inbounds %class.wayobj, %class.wayobj* %this, i64 0, i32 17
  %2 = bitcast i16** %maparp to i8**
  %3 = load i8*, i8** %2, align 8, !tbaa !83
  %conv = sext i32 %shl2 to i64
  %mul = shl nsw i64 %conv, 1
  tail call void @llvm.memset.p0i8.i64(i8* align 2 %3, i8 0, i64 %mul, i1 false)
  %waymap = getelementptr inbounds %class.wayobj, %class.wayobj* %this, i64 0, i32 18
  %4 = bitcast %struct.waymapcellt** %waymap to i8**
  %5 = load i8*, i8** %4, align 8, !tbaa !88
  %mul4 = shl nsw i64 %conv, 2
  tail call void @llvm.memset.p0i8.i64(i8* align 2 %5, i8 0, i64 %mul4, i1 false)
  %maply = getelementptr inbounds %class.wayobj, %class.wayobj* %this, i64 0, i32 8
  %6 = load i32, i32* %maply, align 8, !tbaa !82
  %cmp65 = icmp sgt i32 %6, 0
  br i1 %cmp65, label %for.body.lr.ph, label %for.cond19.preheader

for.body.lr.ph:                                   ; preds = %entry
  %7 = load i16*, i16** %maparp, align 8, !tbaa !83
  %shift = getelementptr inbounds %class.wayobj, %class.wayobj* %this, i64 0, i32 2
  %8 = load i32, i32* %shift, align 8, !tbaa !84
  br label %for.body

for.cond7.preheader:                              ; preds = %for.body
  br i1 %cmp65, label %for.body10.lr.ph, label %for.cond19.preheader

for.body10.lr.ph:                                 ; preds = %for.cond7.preheader
  %9 = load i16*, i16** %maparp, align 8, !tbaa !83
  %shift12 = getelementptr inbounds %class.wayobj, %class.wayobj* %this, i64 0, i32 2
  %10 = load i32, i32* %shift12, align 8, !tbaa !84
  %mapmaxx = getelementptr inbounds %class.wayobj, %class.wayobj* %this, i64 0, i32 3
  %11 = load i32, i32* %mapmaxx, align 4, !tbaa !89
  br label %for.body10

for.body:                                         ; preds = %for.body.lr.ph, %for.body
  %y.066 = phi i32 [ 0, %for.body.lr.ph ], [ %inc, %for.body ]
  %shl6 = shl i32 %y.066, %8
  %idxprom = sext i32 %shl6 to i64
  %arrayidx = getelementptr inbounds i16, i16* %7, i64 %idxprom
  store i16 -1, i16* %arrayidx, align 2, !tbaa !85
  %inc = add nuw nsw i32 %y.066, 1
  %cmp = icmp slt i32 %inc, %6
  br i1 %cmp, label %for.body, label %for.cond7.preheader

for.cond19.preheader:                             ; preds = %for.body10, %entry, %for.cond7.preheader
  %maplx = getelementptr inbounds %class.wayobj, %class.wayobj* %this, i64 0, i32 7
  %12 = load i32, i32* %maplx, align 4, !tbaa !79
  %cmp2061 = icmp sgt i32 %12, 0
  br i1 %cmp2061, label %for.body34.lr.ph, label %for.end43

for.body10:                                       ; preds = %for.body10, %for.body10.lr.ph
  %y.164 = phi i32 [ 0, %for.body10.lr.ph ], [ %inc17, %for.body10 ]
  %shl13 = shl i32 %y.164, %10
  %or = or i32 %shl13, %11
  %idxprom14 = sext i32 %or to i64
  %arrayidx15 = getelementptr inbounds i16, i16* %9, i64 %idxprom14
  store i16 -1, i16* %arrayidx15, align 2, !tbaa !85
  %inc17 = add nuw nsw i32 %y.164, 1
  %exitcond68 = icmp eq i32 %inc17, %6
  br i1 %exitcond68, label %for.cond19.preheader, label %for.body10

for.body34.lr.ph:                                 ; preds = %for.cond19.preheader
  %13 = bitcast i16** %maparp to i8**
  %14 = load i8*, i8** %13, align 8, !tbaa !83
  %15 = zext i32 %12 to i64
  %16 = shl nuw nsw i64 %15, 1
  call void @llvm.memset.p0i8.i64(i8* align 2 %14, i8 -1, i64 %16, i1 false)
  %17 = load i16*, i16** %maparp, align 8, !tbaa !83
  %mapmaxy = getelementptr inbounds %class.wayobj, %class.wayobj* %this, i64 0, i32 4
  %18 = load i32, i32* %mapmaxy, align 8, !tbaa !90
  %shift36 = getelementptr inbounds %class.wayobj, %class.wayobj* %this, i64 0, i32 2
  %19 = load i32, i32* %shift36, align 8, !tbaa !84
  %shl37 = shl i32 %18, %19
  br label %for.body34

for.body34:                                       ; preds = %for.body34, %for.body34.lr.ph
  %x.160 = phi i32 [ 0, %for.body34.lr.ph ], [ %inc42, %for.body34 ]
  %or38 = or i32 %shl37, %x.160
  %idxprom39 = sext i32 %or38 to i64
  %arrayidx40 = getelementptr inbounds i16, i16* %17, i64 %idxprom39
  store i16 -1, i16* %arrayidx40, align 2, !tbaa !85
  %inc42 = add nuw nsw i32 %x.160, 1
  %exitcond = icmp eq i32 %inc42, %12
  br i1 %exitcond, label %for.end43, label %for.body34

for.end43:                                        ; preds = %for.body34, %for.cond19.preheader
  ret void
}

; Function Attrs: optsize
define dso_local i1 @_ZN6wayobj7loadmapEPKc(%class.wayobj* %this, i8* nocapture readonly %fn) local_unnamed_addr #0 align 2 {
entry:
  %xRunion = alloca %union.anon, align 4
  %yRunion = alloca %union.anon, align 4
  %agg.tmp = alloca %struct.createwaymnginfot, align 4
  %0 = bitcast %union.anon* %xRunion to i8*
  call void @llvm.lifetime.start.p0i8(i64 4, i8* nonnull %0) #21
  %1 = bitcast %union.anon* %yRunion to i8*
  call void @llvm.lifetime.start.p0i8(i64 4, i8* nonnull %1) #21
  %call = tail call i32 (i8*, i32, ...) @open(i8* %fn, i32 0) #19
  %cmp = icmp eq i32 %call, -1
  br i1 %cmp, label %cleanup, label %if.end

if.end:                                           ; preds = %entry
  %xRstruc = bitcast %union.anon* %xRunion to %struct.anon*
  %call2 = call i64 @read(i32 %call, i8* nonnull %0, i64 1) #19
  %xR2 = getelementptr inbounds %struct.anon, %struct.anon* %xRstruc, i64 0, i32 1
  %call4 = call i64 @read(i32 %call, i8* nonnull %xR2, i64 1) #19
  %xR3 = getelementptr inbounds %struct.anon, %struct.anon* %xRstruc, i64 0, i32 2
  %call6 = call i64 @read(i32 %call, i8* nonnull %xR3, i64 1) #19
  %xR4 = getelementptr inbounds %struct.anon, %struct.anon* %xRstruc, i64 0, i32 3
  %call8 = call i64 @read(i32 %call, i8* nonnull %xR4, i64 1) #19
  %yRstruc = bitcast %union.anon* %yRunion to %struct.anon*
  %call9 = call i64 @read(i32 %call, i8* nonnull %1, i64 1) #19
  %yR2 = getelementptr inbounds %struct.anon, %struct.anon* %yRstruc, i64 0, i32 1
  %call11 = call i64 @read(i32 %call, i8* nonnull %yR2, i64 1) #19
  %yR3 = getelementptr inbounds %struct.anon, %struct.anon* %yRstruc, i64 0, i32 2
  %call13 = call i64 @read(i32 %call, i8* nonnull %yR3, i64 1) #19
  %yR4 = getelementptr inbounds %struct.anon, %struct.anon* %yRstruc, i64 0, i32 3
  %call15 = call i64 @read(i32 %call, i8* nonnull %yR4, i64 1) #19
  %xRmapsizex = getelementptr inbounds %union.anon, %union.anon* %xRunion, i64 0, i32 0
  %2 = load i32, i32* %xRmapsizex, align 4, !tbaa !29
  %yRmapsizey = getelementptr inbounds %union.anon, %union.anon* %yRunion, i64 0, i32 0
  %3 = load i32, i32* %yRmapsizey, align 4, !tbaa !29
  %conv = sitofp i32 %2 to double
  %call16 = tail call double @log(double %conv) #20
  %div = fdiv double %call16, 0x3FE62E42FEFA39EF
  %add = fadd double %div, 5.000000e-01
  %conv18 = fptosi double %add to i32
  %conv19 = sitofp i32 %3 to double
  %call20 = tail call double @log(double %conv19) #20
  %div22 = fdiv double %call20, 0x3FE62E42FEFA39EF
  %add23 = fadd double %div22, 5.000000e-01
  %conv24 = fptosi double %add23 to i32
  %info.sroa.0.0..sroa_idx = getelementptr inbounds %struct.createwaymnginfot, %struct.createwaymnginfot* %agg.tmp, i64 0, i32 0
  store float -1.000000e+03, float* %info.sroa.0.0..sroa_idx, align 4, !tbaa.struct !91
  %info.sroa.4.0..sroa_idx66 = getelementptr inbounds %struct.createwaymnginfot, %struct.createwaymnginfot* %agg.tmp, i64 0, i32 1
  store float 1.000000e+03, float* %info.sroa.4.0..sroa_idx66, align 4, !tbaa.struct !91
  %info.sroa.5.0..sroa_idx68 = getelementptr inbounds %struct.createwaymnginfot, %struct.createwaymnginfot* %agg.tmp, i64 0, i32 2
  store float -1.000000e+03, float* %info.sroa.5.0..sroa_idx68, align 4, !tbaa.struct !91
  %info.sroa.6.0..sroa_idx70 = getelementptr inbounds %struct.createwaymnginfot, %struct.createwaymnginfot* %agg.tmp, i64 0, i32 3
  store float 1.000000e+03, float* %info.sroa.6.0..sroa_idx70, align 4, !tbaa.struct !91
  %info.sroa.7.0..sroa_idx72 = getelementptr inbounds %struct.createwaymnginfot, %struct.createwaymnginfot* %agg.tmp, i64 0, i32 4
  store i32 %conv18, i32* %info.sroa.7.0..sroa_idx72, align 4, !tbaa.struct !91
  %info.sroa.8.0..sroa_idx74 = getelementptr inbounds %struct.createwaymnginfot, %struct.createwaymnginfot* %agg.tmp, i64 0, i32 5
  store i32 %conv24, i32* %info.sroa.8.0..sroa_idx74, align 4, !tbaa.struct !91
  %info.sroa.9.0..sroa_idx76 = getelementptr inbounds %struct.createwaymnginfot, %struct.createwaymnginfot* %agg.tmp, i64 0, i32 6
  store float 0.000000e+00, float* %info.sroa.9.0..sroa_idx76, align 4, !tbaa.struct !91
  %info.sroa.10.0..sroa_idx78 = getelementptr inbounds %struct.createwaymnginfot, %struct.createwaymnginfot* %agg.tmp, i64 0, i32 7
  store float 1.000000e+05, float* %info.sroa.10.0..sroa_idx78, align 4, !tbaa.struct !91
  call void @_ZN6wayobj6createE17createwaymnginfot(%class.wayobj* %this, %struct.createwaymnginfot* nonnull %agg.tmp) #19
  %mul = mul nsw i32 %3, %2
  %conv25 = sext i32 %mul to i64
  %call27 = tail call noalias i8* @malloc(i64 %conv25) #20
  %call31 = tail call i64 @read(i32 %call, i8* %call27, i64 %conv25) #19
  %mapmaxy = getelementptr inbounds %class.wayobj, %class.wayobj* %this, i64 0, i32 4
  %4 = load i32, i32* %mapmaxy, align 8, !tbaa !90
  %cmp3299 = icmp sgt i32 %4, 1
  br i1 %cmp3299, label %for.cond33.preheader.lr.ph, label %for.end44

for.cond33.preheader.lr.ph:                       ; preds = %if.end
  %mapmaxx = getelementptr inbounds %class.wayobj, %class.wayobj* %this, i64 0, i32 3
  %5 = load i32, i32* %mapmaxx, align 4, !tbaa !89
  %cmp3497 = icmp sgt i32 %5, 1
  %shift = getelementptr inbounds %class.wayobj, %class.wayobj* %this, i64 0, i32 2
  %maparp = getelementptr inbounds %class.wayobj, %class.wayobj* %this, i64 0, i32 17
  br label %for.cond33.preheader

for.cond33.preheader:                             ; preds = %for.cond33.preheader.lr.ph, %for.inc42
  %y.0100 = phi i32 [ 1, %for.cond33.preheader.lr.ph ], [ %inc43, %for.inc42 ]
  br i1 %cmp3497, label %for.body35.lr.ph, label %for.inc42

for.body35.lr.ph:                                 ; preds = %for.cond33.preheader
  %6 = load i32, i32* %shift, align 8, !tbaa !84
  %shl = shl i32 %y.0100, %6
  %7 = load i16*, i16** %maparp, align 8, !tbaa !83
  br label %for.body35

for.body35:                                       ; preds = %for.body35.lr.ph, %for.body35
  %x.098 = phi i32 [ 1, %for.body35.lr.ph ], [ %inc, %for.body35 ]
  %or = or i32 %shl, %x.098
  %idxprom = sext i32 %or to i64
  %arrayidx = getelementptr inbounds i8, i8* %call27, i64 %idxprom
  %8 = load i8, i8* %arrayidx, align 1, !tbaa !29
  %conv36 = zext i8 %8 to i16
  %arrayidx41 = getelementptr inbounds i16, i16* %7, i64 %idxprom
  store i16 %conv36, i16* %arrayidx41, align 2, !tbaa !85
  %inc = add nuw nsw i32 %x.098, 1
  %cmp34 = icmp slt i32 %inc, %5
  br i1 %cmp34, label %for.body35, label %for.inc42

for.inc42:                                        ; preds = %for.body35, %for.cond33.preheader
  %inc43 = add nuw nsw i32 %y.0100, 1
  %cmp32 = icmp slt i32 %inc43, %4
  br i1 %cmp32, label %for.cond33.preheader, label %for.end44

for.end44:                                        ; preds = %for.inc42, %if.end
  tail call void @free(i8* %call27) #20
  %call45 = tail call i32 @close(i32 %call) #19
  br label %cleanup

cleanup:                                          ; preds = %entry, %for.end44
  %retval.0 = phi i1 [ true, %for.end44 ], [ false, %entry ]
  call void @llvm.lifetime.end.p0i8(i64 4, i8* nonnull %1) #21
  call void @llvm.lifetime.end.p0i8(i64 4, i8* nonnull %0) #21
  ret i1 %retval.0
}

; Function Attrs: nofree nounwind optsize
declare dso_local double @log(double) local_unnamed_addr #2

; Function Attrs: optsize
define dso_local void @_ZN6wayobj6createE17createwaymnginfot(%class.wayobj* %this, %struct.createwaymnginfot* nocapture readonly %info) local_unnamed_addr #0 align 2 {
entry:
  %info2 = getelementptr inbounds %class.wayobj, %class.wayobj* %this, i64 0, i32 14
  %0 = bitcast %struct.createwaymnginfot* %info2 to i8*
  %1 = bitcast %struct.createwaymnginfot* %info to i8*
  tail call void @llvm.memcpy.p0i8.p0i8.i64(i8* nonnull align 8 dereferenceable(32) %0, i8* nonnull align 4 dereferenceable(32) %1, i64 32, i1 false), !tbaa.struct !91
  %xshift = getelementptr inbounds %struct.createwaymnginfot, %struct.createwaymnginfot* %info, i64 0, i32 4
  %2 = load i32, i32* %xshift, align 4, !tbaa !93
  %mapxshift = getelementptr inbounds %class.wayobj, %class.wayobj* %this, i64 0, i32 0
  store i32 %2, i32* %mapxshift, align 8, !tbaa !86
  %yshift = getelementptr inbounds %struct.createwaymnginfot, %struct.createwaymnginfot* %info, i64 0, i32 5
  %3 = load i32, i32* %yshift, align 4, !tbaa !94
  %mapyshift = getelementptr inbounds %class.wayobj, %class.wayobj* %this, i64 0, i32 1
  store i32 %3, i32* %mapyshift, align 4, !tbaa !87
  %shift = getelementptr inbounds %class.wayobj, %class.wayobj* %this, i64 0, i32 2
  store i32 %2, i32* %shift, align 8, !tbaa !84
  %notmask = shl nsw i32 -1, %2
  %sub = xor i32 %notmask, -1
  %mapmaxx = getelementptr inbounds %class.wayobj, %class.wayobj* %this, i64 0, i32 3
  store i32 %sub, i32* %mapmaxx, align 4, !tbaa !89
  %notmask81 = shl nsw i32 -1, %3
  %sub7 = xor i32 %notmask81, -1
  %mapmaxy = getelementptr inbounds %class.wayobj, %class.wayobj* %this, i64 0, i32 4
  store i32 %sub7, i32* %mapmaxy, align 8, !tbaa !90
  %sub9 = sub nsw i32 -2, %notmask
  %mapmaxx1 = getelementptr inbounds %class.wayobj, %class.wayobj* %this, i64 0, i32 5
  store i32 %sub9, i32* %mapmaxx1, align 4, !tbaa !75
  %sub11 = sub nsw i32 -2, %notmask81
  %mapmaxy1 = getelementptr inbounds %class.wayobj, %class.wayobj* %this, i64 0, i32 6
  store i32 %sub11, i32* %mapmaxy1, align 8, !tbaa !76
  %shl13 = shl nuw i32 1, %2
  %maplx = getelementptr inbounds %class.wayobj, %class.wayobj* %this, i64 0, i32 7
  store i32 %shl13, i32* %maplx, align 4, !tbaa !79
  %shl15 = shl nuw i32 1, %3
  %maply = getelementptr inbounds %class.wayobj, %class.wayobj* %this, i64 0, i32 8
  store i32 %shl15, i32* %maply, align 8, !tbaa !82
  %maxx = getelementptr inbounds %struct.createwaymnginfot, %struct.createwaymnginfot* %info, i64 0, i32 1
  %4 = load float, float* %maxx, align 4, !tbaa !95
  %minx = getelementptr inbounds %struct.createwaymnginfot, %struct.createwaymnginfot* %info, i64 0, i32 0
  %5 = load float, float* %minx, align 4, !tbaa !96
  %sub16 = fsub float %4, %5
  %mul = shl nsw i32 %shl13, 1
  %conv = sitofp i32 %mul to float
  %div = fdiv float %sub16, %conv
  %cellr = getelementptr inbounds %class.wayobj, %class.wayobj* %this, i64 0, i32 13
  store float %div, float* %cellr, align 4, !tbaa !69
  %maxy = getelementptr inbounds %struct.createwaymnginfot, %struct.createwaymnginfot* %info, i64 0, i32 3
  %6 = load float, float* %maxy, align 4, !tbaa !97
  %miny = getelementptr inbounds %struct.createwaymnginfot, %struct.createwaymnginfot* %info, i64 0, i32 2
  %7 = load float, float* %miny, align 4, !tbaa !98
  %sub18 = fsub float %6, %7
  %mul20 = shl nsw i32 %shl15, 1
  %conv21 = sitofp i32 %mul20 to float
  %div22 = fdiv float %sub18, %conv21
  %cmp = fcmp ogt float %div22, %div
  br i1 %cmp, label %if.then, label %if.end

if.then:                                          ; preds = %entry
  store float %div22, float* %cellr, align 4, !tbaa !69
  br label %if.end

if.end:                                           ; preds = %if.then, %entry
  %conv33 = sitofp i32 %shl13 to float
  %div37 = fdiv float %conv33, %sub16
  %xcoef1 = getelementptr inbounds %class.wayobj, %class.wayobj* %this, i64 0, i32 9
  store float %div37, float* %xcoef1, align 4, !tbaa !70
  %sub39 = sub nsw i32 0, %shl13
  %conv40 = sitofp i32 %sub39 to float
  %mul42 = fmul float %5, %conv40
  %div46 = fdiv float %mul42, %sub16
  %xcoef2 = getelementptr inbounds %class.wayobj, %class.wayobj* %this, i64 0, i32 10
  store float %div46, float* %xcoef2, align 8, !tbaa !71
  %conv48 = sitofp i32 %shl15 to float
  %div52 = fdiv float %conv48, %sub18
  %ycoef1 = getelementptr inbounds %class.wayobj, %class.wayobj* %this, i64 0, i32 11
  store float %div52, float* %ycoef1, align 4, !tbaa !73
  %sub54 = sub nsw i32 0, %shl15
  %conv55 = sitofp i32 %sub54 to float
  %mul57 = fmul float %7, %conv55
  %div61 = fdiv float %mul57, %sub18
  %ycoef2 = getelementptr inbounds %class.wayobj, %class.wayobj* %this, i64 0, i32 12
  store float %div61, float* %ycoef2, align 8, !tbaa !74
  %shl65 = shl i32 %shl13, %3
  %8 = sext i32 %shl65 to i64
  %9 = tail call { i64, i1 } @llvm.umul.with.overflow.i64(i64 %8, i64 2)
  %10 = extractvalue { i64, i1 } %9, 1
  %11 = extractvalue { i64, i1 } %9, 0
  %12 = select i1 %10, i64 -1, i64 %11
  %call = tail call i8* @_Znam(i64 %12) #23
  %maparp = getelementptr inbounds %class.wayobj, %class.wayobj* %this, i64 0, i32 17
  %13 = bitcast i16** %maparp to i8**
  store i8* %call, i8** %13, align 8, !tbaa !83
  %14 = tail call { i64, i1 } @llvm.umul.with.overflow.i64(i64 %8, i64 4)
  %15 = extractvalue { i64, i1 } %14, 1
  %16 = extractvalue { i64, i1 } %14, 0
  %17 = select i1 %15, i64 -1, i64 %16
  %call66 = tail call i8* @_Znam(i64 %17) #23
  %waymap = getelementptr inbounds %class.wayobj, %class.wayobj* %this, i64 0, i32 18
  %18 = bitcast %struct.waymapcellt** %waymap to i8**
  store i8* %call66, i8** %18, align 8, !tbaa !88
  tail call void @_ZN6wayobj5clearEv(%class.wayobj* nonnull %this) #19
  %19 = load i32, i32* %maplx, align 4, !tbaa !79
  %20 = load i32, i32* %maply, align 8, !tbaa !82
  %mul6882 = add i32 %20, %19
  %mul71 = mul i32 %mul6882, 12
  %maxboundlength = getelementptr inbounds %class.wayobj, %class.wayobj* %this, i64 0, i32 21
  store i32 %mul71, i32* %maxboundlength, align 8, !tbaa !99
  %21 = sext i32 %mul71 to i64
  %22 = tail call { i64, i1 } @llvm.umul.with.overflow.i64(i64 %21, i64 4)
  %23 = extractvalue { i64, i1 } %22, 1
  %24 = extractvalue { i64, i1 } %22, 0
  %25 = select i1 %23, i64 -1, i64 %24
  %call73 = tail call i8* @_Znam(i64 %25) #23
  %bound1p = getelementptr inbounds %class.wayobj, %class.wayobj* %this, i64 0, i32 19
  %26 = bitcast i32** %bound1p to i8**
  store i8* %call73, i8** %26, align 8, !tbaa !100
  %call75 = tail call i8* @_Znam(i64 %25) #23
  %bound2p = getelementptr inbounds %class.wayobj, %class.wayobj* %this, i64 0, i32 20
  %27 = bitcast i32** %bound2p to i8**
  store i8* %call75, i8** %27, align 8, !tbaa !101
  %28 = load i32, i32* %shift, align 8, !tbaa !84
  %notmask83 = shl nsw i32 -1, %28
  %sub78 = xor i32 %notmask83, -1
  %indexxmask = getelementptr inbounds %class.wayobj, %class.wayobj* %this, i64 0, i32 22
  store i32 %sub78, i32* %indexxmask, align 4, !tbaa !102
  %fillnum = getelementptr inbounds %class.wayobj, %class.wayobj* %this, i64 0, i32 27
  store i16 0, i16* %fillnum, align 2, !tbaa !103
  ret void
}

; Function Attrs: nounwind readnone speculatable willreturn
declare { i64, i1 } @llvm.umul.with.overflow.i64(i64, i64) #12

; Function Attrs: nobuiltin nofree optsize
declare dso_local noalias nonnull i8* @_Znam(i64) local_unnamed_addr #10

; Function Attrs: optsize
define dso_local i1 @_ZN6wayobj7initmapEii(%class.wayobj* %this, i32 %mapsizex, i32 %mapsizey) local_unnamed_addr #0 align 2 {
entry:
  %agg.tmp = alloca %struct.createwaymnginfot, align 4
  %conv = sitofp i32 %mapsizex to double
  %call = tail call double @log(double %conv) #20
  %div = fdiv double %call, 0x3FE62E42FEFA39EF
  %add = fadd double %div, 5.000000e-01
  %conv3 = fptosi double %add to i32
  %conv4 = sitofp i32 %mapsizey to double
  %call5 = tail call double @log(double %conv4) #20
  %div7 = fdiv double %call5, 0x3FE62E42FEFA39EF
  %add8 = fadd double %div7, 5.000000e-01
  %conv9 = fptosi double %add8 to i32
  %info.sroa.0.0..sroa_idx = getelementptr inbounds %struct.createwaymnginfot, %struct.createwaymnginfot* %agg.tmp, i64 0, i32 0
  store float -1.000000e+03, float* %info.sroa.0.0..sroa_idx, align 4, !tbaa.struct !91
  %info.sroa.4.0..sroa_idx11 = getelementptr inbounds %struct.createwaymnginfot, %struct.createwaymnginfot* %agg.tmp, i64 0, i32 1
  store float 1.000000e+03, float* %info.sroa.4.0..sroa_idx11, align 4, !tbaa.struct !91
  %info.sroa.5.0..sroa_idx13 = getelementptr inbounds %struct.createwaymnginfot, %struct.createwaymnginfot* %agg.tmp, i64 0, i32 2
  store float -1.000000e+03, float* %info.sroa.5.0..sroa_idx13, align 4, !tbaa.struct !91
  %info.sroa.6.0..sroa_idx15 = getelementptr inbounds %struct.createwaymnginfot, %struct.createwaymnginfot* %agg.tmp, i64 0, i32 3
  store float 1.000000e+03, float* %info.sroa.6.0..sroa_idx15, align 4, !tbaa.struct !91
  %info.sroa.7.0..sroa_idx17 = getelementptr inbounds %struct.createwaymnginfot, %struct.createwaymnginfot* %agg.tmp, i64 0, i32 4
  store i32 %conv3, i32* %info.sroa.7.0..sroa_idx17, align 4, !tbaa.struct !91
  %info.sroa.8.0..sroa_idx19 = getelementptr inbounds %struct.createwaymnginfot, %struct.createwaymnginfot* %agg.tmp, i64 0, i32 5
  store i32 %conv9, i32* %info.sroa.8.0..sroa_idx19, align 4, !tbaa.struct !91
  %info.sroa.9.0..sroa_idx21 = getelementptr inbounds %struct.createwaymnginfot, %struct.createwaymnginfot* %agg.tmp, i64 0, i32 6
  store float 0.000000e+00, float* %info.sroa.9.0..sroa_idx21, align 4, !tbaa.struct !91
  %info.sroa.10.0..sroa_idx23 = getelementptr inbounds %struct.createwaymnginfot, %struct.createwaymnginfot* %agg.tmp, i64 0, i32 7
  store float 1.000000e+05, float* %info.sroa.10.0..sroa_idx23, align 4, !tbaa.struct !91
  call void @_ZN6wayobj6createE17createwaymnginfot(%class.wayobj* %this, %struct.createwaymnginfot* nonnull %agg.tmp) #19
  ret i1 true
}

; Function Attrs: norecurse nounwind optsize readnone
define dso_local void @_ZN6wayobj6createEv(%class.wayobj* nocapture %this) local_unnamed_addr #13 align 2 {
entry:
  ret void
}

; Function Attrs: nounwind optsize
define dso_local void @_ZN6wayobj7destroyEv(%class.wayobj* nocapture readonly %this) local_unnamed_addr #8 align 2 {
entry:
  %bound2p = getelementptr inbounds %class.wayobj, %class.wayobj* %this, i64 0, i32 20
  %0 = load i32*, i32** %bound2p, align 8, !tbaa !101
  %isnull = icmp eq i32* %0, null
  br i1 %isnull, label %delete.end, label %delete.notnull

delete.notnull:                                   ; preds = %entry
  %1 = bitcast i32* %0 to i8*
  tail call void @_ZdaPv(i8* %1) #22
  br label %delete.end

delete.end:                                       ; preds = %delete.notnull, %entry
  %bound1p = getelementptr inbounds %class.wayobj, %class.wayobj* %this, i64 0, i32 19
  %2 = load i32*, i32** %bound1p, align 8, !tbaa !100
  %isnull2 = icmp eq i32* %2, null
  br i1 %isnull2, label %delete.end4, label %delete.notnull3

delete.notnull3:                                  ; preds = %delete.end
  %3 = bitcast i32* %2 to i8*
  tail call void @_ZdaPv(i8* %3) #22
  br label %delete.end4

delete.end4:                                      ; preds = %delete.notnull3, %delete.end
  %waymap = getelementptr inbounds %class.wayobj, %class.wayobj* %this, i64 0, i32 18
  %4 = load %struct.waymapcellt*, %struct.waymapcellt** %waymap, align 8, !tbaa !88
  %isnull5 = icmp eq %struct.waymapcellt* %4, null
  br i1 %isnull5, label %delete.end7, label %delete.notnull6

delete.notnull6:                                  ; preds = %delete.end4
  %5 = bitcast %struct.waymapcellt* %4 to i8*
  tail call void @_ZdaPv(i8* %5) #22
  br label %delete.end7

delete.end7:                                      ; preds = %delete.notnull6, %delete.end4
  %maparp = getelementptr inbounds %class.wayobj, %class.wayobj* %this, i64 0, i32 17
  %6 = load i16*, i16** %maparp, align 8, !tbaa !83
  %isnull8 = icmp eq i16* %6, null
  br i1 %isnull8, label %delete.end10, label %delete.notnull9

delete.notnull9:                                  ; preds = %delete.end7
  %7 = bitcast i16* %6 to i8*
  tail call void @_ZdaPv(i8* %7) #22
  br label %delete.end10

delete.end10:                                     ; preds = %delete.notnull9, %delete.end7
  ret void
}

; Function Attrs: nobuiltin nounwind optsize
declare dso_local void @_ZdaPv(i8*) local_unnamed_addr #5

; Function Attrs: optsize
define dso_local void @_ZN9regmngobj10addtoboundER9flexarrayI6pointtEii(%class.regmngobj* nocapture %this, %class.flexarray.4* dereferenceable(16) %barp, i32 %x, i32 %y) local_unnamed_addr #0 align 2 {
entry:
  %landscapemapp.i = getelementptr inbounds %class.regmngobj, %class.regmngobj* %this, i64 0, i32 7
  %0 = load i8*, i8** %landscapemapp.i, align 8, !tbaa !28
  %mapsizex.i = getelementptr inbounds %class.regmngobj, %class.regmngobj* %this, i64 0, i32 16
  %1 = load i32, i32* %mapsizex.i, align 4, !tbaa !30
  %mul.i = mul nsw i32 %1, %y
  %add.i = add nsw i32 %mul.i, %x
  %idxprom.i = sext i32 %add.i to i64
  %arrayidx.i = getelementptr inbounds i8, i8* %0, i64 %idxprom.i
  %2 = load i8, i8* %arrayidx.i, align 1, !tbaa !29
  %idxprom = zext i8 %2 to i64
  %arrayidx = getelementptr inbounds %class.regmngobj, %class.regmngobj* %this, i64 0, i32 8, i64 %idxprom
  %3 = load i8, i8* %arrayidx, align 1, !tbaa !35, !range !45
  %tobool = icmp eq i8 %3, 0
  br i1 %tobool, label %if.then6, label %land.lhs.true

land.lhs.true:                                    ; preds = %entry
  %flfind = getelementptr inbounds %class.regmngobj, %class.regmngobj* %this, i64 0, i32 4
  %4 = load i8, i8* %flfind, align 4, !tbaa !104, !range !45
  %cmp = icmp eq i8 %4, 0
  br i1 %cmp, label %if.then, label %if.end7

if.then:                                          ; preds = %land.lhs.true
  %freepointx = getelementptr inbounds %class.regmngobj, %class.regmngobj* %this, i64 0, i32 2
  store i32 %x, i32* %freepointx, align 4, !tbaa !105
  %freepointy = getelementptr inbounds %class.regmngobj, %class.regmngobj* %this, i64 0, i32 3
  store i32 %y, i32* %freepointy, align 8, !tbaa !106
  store i8 1, i8* %flfind, align 4, !tbaa !104
  br label %cleanup

if.then6:                                         ; preds = %entry
  %elemqu.i = getelementptr inbounds %class.flexarray.4, %class.flexarray.4* %barp, i64 0, i32 1
  %5 = load i32, i32* %elemqu.i, align 8, !tbaa !107
  %maxelemqu.i = getelementptr inbounds %class.flexarray.4, %class.flexarray.4* %barp, i64 0, i32 2
  %6 = load i32, i32* %maxelemqu.i, align 4, !tbaa !108
  %cmp.i = icmp eq i32 %5, %6
  br i1 %cmp.i, label %if.then.i, label %_ZN9flexarrayI6pointtE3addERKS0_.exit

if.then.i:                                        ; preds = %if.then6
  tail call void @_ZN9flexarrayI6pointtE8doublingEb(%class.flexarray.4* nonnull %barp, i1 true) #19
  %.pre.i = load i32, i32* %elemqu.i, align 8, !tbaa !107
  br label %_ZN9flexarrayI6pointtE3addERKS0_.exit

_ZN9flexarrayI6pointtE3addERKS0_.exit:            ; preds = %if.then6, %if.then.i
  %7 = phi i32 [ %.pre.i, %if.then.i ], [ %5, %if.then6 ]
  %ep.i = getelementptr inbounds %class.flexarray.4, %class.flexarray.4* %barp, i64 0, i32 0
  %8 = load %struct.pointt*, %struct.pointt** %ep.i, align 8, !tbaa !109
  %idxprom.i17 = sext i32 %7 to i64
  %arrayidx.i18 = getelementptr inbounds %struct.pointt, %struct.pointt* %8, i64 %idxprom.i17
  %9 = bitcast %struct.pointt* %arrayidx.i18 to i64*
  %ref.tmp.sroa.4.0.insert.ext = zext i32 %y to i64
  %ref.tmp.sroa.4.0.insert.shift = shl nuw i64 %ref.tmp.sroa.4.0.insert.ext, 32
  %ref.tmp.sroa.0.0.insert.ext = zext i32 %x to i64
  %ref.tmp.sroa.0.0.insert.insert = or i64 %ref.tmp.sroa.4.0.insert.shift, %ref.tmp.sroa.0.0.insert.ext
  store i64 %ref.tmp.sroa.0.0.insert.insert, i64* %9, align 4
  %10 = load i32, i32* %elemqu.i, align 8, !tbaa !107
  %inc.i = add nsw i32 %10, 1
  store i32 %inc.i, i32* %elemqu.i, align 8, !tbaa !107
  %.pre = load i32, i32* %mapsizex.i, align 4, !tbaa !30
  %.pre21 = mul nsw i32 %.pre, %y
  %.pre22 = add nsw i32 %.pre21, %x
  %.pre23 = sext i32 %.pre22 to i64
  br label %if.end7

if.end7:                                          ; preds = %land.lhs.true, %_ZN9flexarrayI6pointtE3addERKS0_.exit
  %idxprom8.pre-phi = phi i64 [ %idxprom.i, %land.lhs.true ], [ %.pre23, %_ZN9flexarrayI6pointtE3addERKS0_.exit ]
  %fillnum = getelementptr inbounds %class.regmngobj, %class.regmngobj* %this, i64 0, i32 1
  %11 = load i16, i16* %fillnum, align 8, !tbaa !34
  %mmapp = getelementptr inbounds %class.regmngobj, %class.regmngobj* %this, i64 0, i32 0
  %12 = load i16*, i16** %mmapp, align 8, !tbaa !2
  %arrayidx9 = getelementptr inbounds i16, i16* %12, i64 %idxprom8.pre-phi
  store i16 %11, i16* %arrayidx9, align 2, !tbaa !85
  br label %cleanup

cleanup:                                          ; preds = %if.end7, %if.then
  ret void
}

; Function Attrs: optsize
define linkonce_odr dso_local void @_ZN9flexarrayI6pointtE8doublingEb(%class.flexarray.4* %this, i1 %flcopy) local_unnamed_addr #0 comdat align 2 {
entry:
  %maxelemqu = getelementptr inbounds %class.flexarray.4, %class.flexarray.4* %this, i64 0, i32 2
  %0 = load i32, i32* %maxelemqu, align 4, !tbaa !108
  %shl = shl i32 %0, 1
  %mul = shl i32 %0, 4
  %conv.i = sext i32 %mul to i64
  %call.i = tail call noalias i8* @malloc(i64 %conv.i) #20
  %1 = bitcast %class.flexarray.4* %this to i8**
  %2 = load i8*, i8** %1, align 8, !tbaa !109
  br i1 %flcopy, label %if.then, label %if.end

if.then:                                          ; preds = %entry
  %conv4 = sext i32 %0 to i64
  %mul5 = shl nsw i64 %conv4, 3
  tail call void @llvm.memcpy.p0i8.p0i8.i64(i8* align 4 %call.i, i8* align 4 %2, i64 %mul5, i1 false)
  br label %if.end

if.end:                                           ; preds = %entry, %if.then
  tail call void @free(i8* %2) #20
  store i8* %call.i, i8** %1, align 8, !tbaa !109
  store i32 %shl, i32* %maxelemqu, align 4, !tbaa !108
  ret void
}

; Function Attrs: optsize
define dso_local void @_ZN9regmngobj10makebound2ER9flexarrayI6pointtES3_(%class.regmngobj* nocapture %this, %class.flexarray.4* nocapture readonly dereferenceable(16) %b1arp, %class.flexarray.4* dereferenceable(16) %b2arp) local_unnamed_addr #0 align 2 {
entry:
  %elemqu.i = getelementptr inbounds %class.flexarray.4, %class.flexarray.4* %b2arp, i64 0, i32 1
  store i32 0, i32* %elemqu.i, align 8, !tbaa !107
  %elemqu = getelementptr inbounds %class.flexarray.4, %class.flexarray.4* %b1arp, i64 0, i32 1
  %0 = load i32, i32* %elemqu, align 8, !tbaa !107
  %cmp85 = icmp sgt i32 %0, 0
  br i1 %cmp85, label %for.body.lr.ph, label %for.end40

for.body.lr.ph:                                   ; preds = %entry
  %ep.i = getelementptr inbounds %class.flexarray.4, %class.flexarray.4* %b1arp, i64 0, i32 0
  %mapmaxx = getelementptr inbounds %class.regmngobj, %class.regmngobj* %this, i64 0, i32 12
  %mapmaxy = getelementptr inbounds %class.regmngobj, %class.regmngobj* %this, i64 0, i32 13
  %mmapp = getelementptr inbounds %class.regmngobj, %class.regmngobj* %this, i64 0, i32 0
  %mapsizex = getelementptr inbounds %class.regmngobj, %class.regmngobj* %this, i64 0, i32 16
  %fillnum = getelementptr inbounds %class.regmngobj, %class.regmngobj* %this, i64 0, i32 1
  br label %for.body

for.body:                                         ; preds = %for.body.lr.ph, %for.inc38
  %indvars.iv = phi i64 [ 0, %for.body.lr.ph ], [ %indvars.iv.next, %for.inc38 ]
  %1 = load %struct.pointt*, %struct.pointt** %ep.i, align 8, !tbaa !109
  %x3 = getelementptr inbounds %struct.pointt, %struct.pointt* %1, i64 %indvars.iv, i32 0
  %2 = load i32, i32* %x3, align 4, !tbaa !110
  %sub = add nsw i32 %2, -1
  %y5 = getelementptr inbounds %struct.pointt, %struct.pointt* %1, i64 %indvars.iv, i32 1
  %3 = load i32, i32* %y5, align 4, !tbaa !111
  %sub6 = add nsw i32 %3, -1
  %add = add nsw i32 %2, 1
  %add11 = add nsw i32 %3, 1
  %cmp12.inv = icmp sgt i32 %2, 0
  %spec.select = select i1 %cmp12.inv, i32 %sub, i32 0
  %cmp13.inv = icmp sgt i32 %3, 0
  %y1.0 = select i1 %cmp13.inv, i32 %sub6, i32 0
  %4 = load i32, i32* %mapmaxx, align 4, !tbaa !32
  %cmp16 = icmp slt i32 %2, %4
  %spec.select69 = select i1 %cmp16, i32 %add, i32 %4
  %5 = load i32, i32* %mapmaxy, align 8, !tbaa !33
  %cmp20 = icmp slt i32 %3, %5
  %y2.0 = select i1 %cmp20, i32 %add11, i32 %5
  %cmp2582 = icmp sgt i32 %y1.0, %y2.0
  br i1 %cmp2582, label %for.inc38, label %for.cond27.preheader.lr.ph

for.cond27.preheader.lr.ph:                       ; preds = %for.body
  %cmp2879 = icmp sgt i32 %spec.select, %spec.select69
  br label %for.cond27.preheader

for.cond27.preheader:                             ; preds = %for.inc35, %for.cond27.preheader.lr.ph
  %y.083 = phi i32 [ %y1.0, %for.cond27.preheader.lr.ph ], [ %inc36, %for.inc35 ]
  br i1 %cmp2879, label %for.inc35, label %for.body29

for.body29:                                       ; preds = %for.cond27.preheader, %for.inc
  %x.080 = phi i32 [ %inc, %for.inc ], [ %spec.select, %for.cond27.preheader ]
  %6 = load i16*, i16** %mmapp, align 8, !tbaa !2
  %7 = load i32, i32* %mapsizex, align 4, !tbaa !30
  %mul = mul nsw i32 %7, %y.083
  %add30 = add nsw i32 %mul, %x.080
  %idxprom = sext i32 %add30 to i64
  %arrayidx = getelementptr inbounds i16, i16* %6, i64 %idxprom
  %8 = load i16, i16* %arrayidx, align 2, !tbaa !85
  %9 = load i16, i16* %fillnum, align 8, !tbaa !34
  %cmp32 = icmp eq i16 %8, %9
  br i1 %cmp32, label %for.inc, label %if.then33

if.then33:                                        ; preds = %for.body29
  tail call void @_ZN9regmngobj10addtoboundER9flexarrayI6pointtEii(%class.regmngobj* nonnull %this, %class.flexarray.4* nonnull dereferenceable(16) %b2arp, i32 %x.080, i32 %y.083) #19
  br label %for.inc

for.inc:                                          ; preds = %for.body29, %if.then33
  %inc = add nsw i32 %x.080, 1
  %cmp28 = icmp slt i32 %x.080, %spec.select69
  br i1 %cmp28, label %for.body29, label %for.inc35

for.inc35:                                        ; preds = %for.inc, %for.cond27.preheader
  %inc36 = add nsw i32 %y.083, 1
  %cmp25 = icmp slt i32 %y.083, %y2.0
  br i1 %cmp25, label %for.cond27.preheader, label %for.inc38

for.inc38:                                        ; preds = %for.inc35, %for.body
  %indvars.iv.next = add nuw nsw i64 %indvars.iv, 1
  %10 = load i32, i32* %elemqu, align 8, !tbaa !107
  %11 = sext i32 %10 to i64
  %cmp = icmp slt i64 %indvars.iv.next, %11
  br i1 %cmp, label %for.body, label %for.end40

for.end40:                                        ; preds = %for.inc38, %entry
  ret void
}

; Function Attrs: optsize
define dso_local i1 @_ZN9regmngobj13findfreeplaceEiiRiS0_(%class.regmngobj* nocapture %this, i32 %x0, i32 %y0, i32* nocapture dereferenceable(4) %xpl, i32* nocapture dereferenceable(4) %ypl) local_unnamed_addr #0 align 2 {
entry:
  %bound1arp = alloca %class.flexarray.4, align 8
  %bound2arp = alloca %class.flexarray.4, align 8
  %0 = bitcast %class.flexarray.4* %bound1arp to i8*
  call void @llvm.lifetime.start.p0i8(i64 16, i8* nonnull %0) #21
  %1 = bitcast %class.flexarray.4* %bound2arp to i8*
  call void @llvm.lifetime.start.p0i8(i64 16, i8* nonnull %1) #21
  %flfind = getelementptr inbounds %class.regmngobj, %class.regmngobj* %this, i64 0, i32 4
  store i8 0, i8* %flfind, align 4, !tbaa !104
  %fillnum = getelementptr inbounds %class.regmngobj, %class.regmngobj* %this, i64 0, i32 1
  %2 = load i16, i16* %fillnum, align 8, !tbaa !34
  %inc = add i16 %2, 1
  store i16 %inc, i16* %fillnum, align 8, !tbaa !34
  %cmp = icmp eq i16 %inc, -1
  br i1 %cmp, label %if.then, label %if.end

if.then:                                          ; preds = %entry
  %3 = bitcast %class.regmngobj* %this to i8**
  %4 = load i8*, i8** %3, align 8, !tbaa !2
  %mapsizex = getelementptr inbounds %class.regmngobj, %class.regmngobj* %this, i64 0, i32 16
  %5 = load i32, i32* %mapsizex, align 4, !tbaa !30
  %mapsizey = getelementptr inbounds %class.regmngobj, %class.regmngobj* %this, i64 0, i32 17
  %6 = load i32, i32* %mapsizey, align 8, !tbaa !31
  %mul = mul nsw i32 %6, %5
  %conv3 = sext i32 %mul to i64
  %mul4 = shl nsw i64 %conv3, 1
  tail call void @llvm.memset.p0i8.i64(i8* align 2 %4, i8 0, i64 %mul4, i1 false)
  store i16 1, i16* %fillnum, align 8, !tbaa !34
  br label %if.end

if.end:                                           ; preds = %if.then, %entry
  %7 = phi i16 [ 1, %if.then ], [ %inc, %entry ]
  store i32 -1, i32* %xpl, align 4, !tbaa !24
  store i32 -1, i32* %ypl, align 4, !tbaa !24
  %freepointx = getelementptr inbounds %class.regmngobj, %class.regmngobj* %this, i64 0, i32 2
  store i32 -1, i32* %freepointx, align 4, !tbaa !105
  %freepointy = getelementptr inbounds %class.regmngobj, %class.regmngobj* %this, i64 0, i32 3
  store i32 -1, i32* %freepointy, align 8, !tbaa !106
  %maxelemqu.i = getelementptr inbounds %class.flexarray.4, %class.flexarray.4* %bound1arp, i64 0, i32 2
  store i32 128, i32* %maxelemqu.i, align 4, !tbaa !108
  %elemqu.i = getelementptr inbounds %class.flexarray.4, %class.flexarray.4* %bound1arp, i64 0, i32 1
  store i32 0, i32* %elemqu.i, align 8, !tbaa !107
  %call.i.i = tail call noalias dereferenceable_or_null(1024) i8* @malloc(i64 1024) #20
  %8 = bitcast %class.flexarray.4* %bound1arp to i8**
  store i8* %call.i.i, i8** %8, align 8, !tbaa !109
  %maxelemqu.i109 = getelementptr inbounds %class.flexarray.4, %class.flexarray.4* %bound2arp, i64 0, i32 2
  store i32 128, i32* %maxelemqu.i109, align 4, !tbaa !108
  %elemqu.i110 = getelementptr inbounds %class.flexarray.4, %class.flexarray.4* %bound2arp, i64 0, i32 1
  store i32 0, i32* %elemqu.i110, align 8, !tbaa !107
  %call.i.i111 = tail call noalias dereferenceable_or_null(1024) i8* @malloc(i64 1024) #20
  %9 = bitcast %class.flexarray.4* %bound2arp to i8**
  store i8* %call.i.i111, i8** %9, align 8, !tbaa !109
  %10 = or i32 %y0, %x0
  %11 = icmp sgt i32 %10, -1
  br i1 %11, label %land.lhs.true8, label %if.end22

land.lhs.true8:                                   ; preds = %if.end
  %mapmaxx = getelementptr inbounds %class.regmngobj, %class.regmngobj* %this, i64 0, i32 12
  %12 = load i32, i32* %mapmaxx, align 4, !tbaa !32
  %cmp9 = icmp slt i32 %12, %x0
  br i1 %cmp9, label %if.end22, label %land.lhs.true10

land.lhs.true10:                                  ; preds = %land.lhs.true8
  %mapmaxy = getelementptr inbounds %class.regmngobj, %class.regmngobj* %this, i64 0, i32 13
  %13 = load i32, i32* %mapmaxy, align 8, !tbaa !33
  %cmp11 = icmp slt i32 %13, %y0
  br i1 %cmp11, label %if.end22, label %if.then12

if.then12:                                        ; preds = %land.lhs.true10
  %mmapp13 = getelementptr inbounds %class.regmngobj, %class.regmngobj* %this, i64 0, i32 0
  %14 = load i16*, i16** %mmapp13, align 8, !tbaa !2
  %mapsizex14 = getelementptr inbounds %class.regmngobj, %class.regmngobj* %this, i64 0, i32 16
  %15 = load i32, i32* %mapsizex14, align 4, !tbaa !30
  %mul15 = mul nsw i32 %15, %y0
  %add = add nsw i32 %mul15, %x0
  %idxprom = sext i32 %add to i64
  %arrayidx = getelementptr inbounds i16, i16* %14, i64 %idxprom
  %16 = load i16, i16* %arrayidx, align 2, !tbaa !85
  %cmp19 = icmp eq i16 %16, %7
  br i1 %cmp19, label %if.end22, label %if.then20

if.then20:                                        ; preds = %if.then12
  call void @_ZN9regmngobj10addtoboundER9flexarrayI6pointtEii(%class.regmngobj* nonnull %this, %class.flexarray.4* nonnull dereferenceable(16) %bound1arp, i32 %x0, i32 %y0) #19
  br label %if.end22

if.end22:                                         ; preds = %if.then12, %land.lhs.true10, %land.lhs.true8, %if.then20, %if.end
  %sub = add nsw i32 %x0, -1
  %sub23 = add nsw i32 %y0, -1
  %add24 = add nsw i32 %x0, 1
  %add25 = add nsw i32 %y0, 1
  %cmp26.inv = icmp sgt i32 %x0, 0
  %spec.select = select i1 %cmp26.inv, i32 %sub, i32 0
  %cmp29.inv = icmp sgt i32 %y0, 0
  %y1.0 = select i1 %cmp29.inv, i32 %sub23, i32 0
  %mapmaxx32 = getelementptr inbounds %class.regmngobj, %class.regmngobj* %this, i64 0, i32 12
  %17 = load i32, i32* %mapmaxx32, align 4, !tbaa !32
  %cmp33 = icmp sgt i32 %17, %x0
  %spec.select108 = select i1 %cmp33, i32 %add24, i32 %17
  %mapmaxy37 = getelementptr inbounds %class.regmngobj, %class.regmngobj* %this, i64 0, i32 13
  %18 = load i32, i32* %mapmaxy37, align 8, !tbaa !33
  %cmp38 = icmp sgt i32 %18, %y0
  %y2.0 = select i1 %cmp38, i32 %add25, i32 %18
  %cmp42117 = icmp sgt i32 %y1.0, %y2.0
  br i1 %cmp42117, label %for.end61, label %for.cond43.preheader.lr.ph

for.cond43.preheader.lr.ph:                       ; preds = %if.end22
  %cmp44114 = icmp sgt i32 %spec.select, %spec.select108
  %mmapp46 = getelementptr inbounds %class.regmngobj, %class.regmngobj* %this, i64 0, i32 0
  %mapsizex47 = getelementptr inbounds %class.regmngobj, %class.regmngobj* %this, i64 0, i32 16
  br label %for.cond43.preheader

for.cond43.preheader:                             ; preds = %for.inc59, %for.cond43.preheader.lr.ph
  %y.0118 = phi i32 [ %y1.0, %for.cond43.preheader.lr.ph ], [ %inc60, %for.inc59 ]
  br i1 %cmp44114, label %for.inc59, label %for.body45

for.body45:                                       ; preds = %for.cond43.preheader, %for.inc
  %x.0115 = phi i32 [ %inc58, %for.inc ], [ %spec.select, %for.cond43.preheader ]
  %19 = load i16*, i16** %mmapp46, align 8, !tbaa !2
  %20 = load i32, i32* %mapsizex47, align 4, !tbaa !30
  %mul48 = mul nsw i32 %20, %y.0118
  %add49 = add nsw i32 %mul48, %x.0115
  %idxprom50 = sext i32 %add49 to i64
  %arrayidx51 = getelementptr inbounds i16, i16* %19, i64 %idxprom50
  %21 = load i16, i16* %arrayidx51, align 2, !tbaa !85
  %22 = load i16, i16* %fillnum, align 8, !tbaa !34
  %cmp55 = icmp eq i16 %21, %22
  br i1 %cmp55, label %for.inc, label %if.then56

if.then56:                                        ; preds = %for.body45
  call void @_ZN9regmngobj10addtoboundER9flexarrayI6pointtEii(%class.regmngobj* nonnull %this, %class.flexarray.4* nonnull dereferenceable(16) %bound1arp, i32 %x.0115, i32 %y.0118) #19
  br label %for.inc

for.inc:                                          ; preds = %for.body45, %if.then56
  %inc58 = add nsw i32 %x.0115, 1
  %cmp44 = icmp slt i32 %x.0115, %spec.select108
  br i1 %cmp44, label %for.body45, label %for.inc59

for.inc59:                                        ; preds = %for.inc, %for.cond43.preheader
  %inc60 = add nsw i32 %y.0118, 1
  %cmp42 = icmp slt i32 %y.0118, %y2.0
  br i1 %cmp42, label %for.cond43.preheader, label %for.end61

for.end61:                                        ; preds = %for.inc59, %if.end22
  %23 = load i32, i32* %elemqu.i, align 8, !tbaa !107
  %cmp62112 = icmp eq i32 %23, 0
  br i1 %cmp62112, label %while.end, label %land.rhs

land.rhs:                                         ; preds = %for.end61, %if.end72
  %flodd.0.off0113 = phi i1 [ %newflodd.0.off0, %if.end72 ], [ false, %for.end61 ]
  %24 = load i8, i8* %flfind, align 4, !tbaa !104, !range !45
  %cmp65 = icmp eq i8 %24, 0
  br i1 %cmp65, label %while.body, label %while.end

while.body:                                       ; preds = %land.rhs
  br i1 %flodd.0.off0113, label %if.else, label %if.then69

if.then69:                                        ; preds = %while.body
  call void @_ZN9regmngobj10makebound2ER9flexarrayI6pointtES3_(%class.regmngobj* nonnull %this, %class.flexarray.4* nonnull dereferenceable(16) %bound1arp, %class.flexarray.4* nonnull dereferenceable(16) %bound2arp) #19
  br label %if.end72

if.else:                                          ; preds = %while.body
  call void @_ZN9regmngobj10makebound2ER9flexarrayI6pointtES3_(%class.regmngobj* nonnull %this, %class.flexarray.4* nonnull dereferenceable(16) %bound2arp, %class.flexarray.4* nonnull dereferenceable(16) %bound1arp) #19
  br label %if.end72

if.end72:                                         ; preds = %if.else, %if.then69
  %elemqu.i.sink = phi i32* [ %elemqu.i, %if.else ], [ %elemqu.i110, %if.then69 ]
  %newflodd.0.off0 = phi i1 [ false, %if.else ], [ true, %if.then69 ]
  %25 = load i32, i32* %elemqu.i.sink, align 8, !tbaa !107
  %cmp62 = icmp eq i32 %25, 0
  br i1 %cmp62, label %while.end, label %land.rhs

while.end:                                        ; preds = %land.rhs, %if.end72, %for.end61
  %26 = load i8*, i8** %8, align 8, !tbaa !109
  call void @free(i8* %26) #20
  %27 = load i8*, i8** %9, align 8, !tbaa !109
  call void @free(i8* %27) #20
  %28 = load i32, i32* %freepointx, align 4, !tbaa !105
  store i32 %28, i32* %xpl, align 4, !tbaa !24
  %29 = load i32, i32* %freepointy, align 8, !tbaa !106
  store i32 %29, i32* %ypl, align 4, !tbaa !24
  %30 = load i8, i8* %flfind, align 4, !tbaa !104, !range !45
  %tobool77 = icmp ne i8 %30, 0
  call void @llvm.lifetime.end.p0i8(i64 16, i8* nonnull %1) #21
  call void @llvm.lifetime.end.p0i8(i64 16, i8* nonnull %0) #21
  ret i1 %tobool77
}

; Function Attrs: optsize
define dso_local void @_ZN11regboundobj10addtoboundER9flexarrayI6pointtEii(%class.regboundobj* nocapture readonly %this, %class.flexarray.4* dereferenceable(16) %barp, i32 %x, i32 %y) local_unnamed_addr #0 align 2 {
entry:
  %regmngp = getelementptr inbounds %class.regboundobj, %class.regboundobj* %this, i64 0, i32 16
  %0 = load %class.regmngobj*, %class.regmngobj** %regmngp, align 8, !tbaa !112
  %landscapemapp.i = getelementptr inbounds %class.regboundobj, %class.regboundobj* %this, i64 0, i32 11
  %1 = load i8*, i8** %landscapemapp.i, align 8, !tbaa !113
  %mapsizex.i = getelementptr inbounds %class.regboundobj, %class.regboundobj* %this, i64 0, i32 12
  %2 = load i32, i32* %mapsizex.i, align 8, !tbaa !114
  %mul.i = mul nsw i32 %2, %y
  %add.i = add nsw i32 %mul.i, %x
  %idxprom.i = sext i32 %add.i to i64
  %arrayidx.i = getelementptr inbounds i8, i8* %1, i64 %idxprom.i
  %3 = load i8, i8* %arrayidx.i, align 1, !tbaa !29
  %idxprom = zext i8 %3 to i64
  %arrayidx = getelementptr inbounds %class.regmngobj, %class.regmngobj* %0, i64 0, i32 8, i64 %idxprom
  %4 = load i8, i8* %arrayidx, align 1, !tbaa !35, !range !45
  %tobool = icmp eq i8 %4, 0
  br i1 %tobool, label %if.else, label %if.then

if.then:                                          ; preds = %entry
  %xc = getelementptr inbounds %class.regboundobj, %class.regboundobj* %this, i64 0, i32 6
  %5 = load i32, i32* %xc, align 8, !tbaa !115
  %sub = sub nsw i32 %x, %5
  %mul.i31 = mul nsw i32 %sub, %sub
  %yc = getelementptr inbounds %class.regboundobj, %class.regboundobj* %this, i64 0, i32 7
  %6 = load i32, i32* %yc, align 4, !tbaa !116
  %sub3 = sub nsw i32 %y, %6
  %mul.i33 = mul nsw i32 %sub3, %sub3
  %add = add nuw nsw i32 %mul.i33, %mul.i31
  %conv = sitofp i32 %add to float
  %add.i32 = fadd float %conv, 5.000000e-01
  %conv.i = fptosi float %add.i32 to i32
  %regionradius2 = getelementptr inbounds %class.regboundobj, %class.regboundobj* %this, i64 0, i32 9
  %7 = load i32, i32* %regionradius2, align 4, !tbaa !117
  %cmp = icmp slt i32 %7, %conv.i
  br i1 %cmp, label %if.end10, label %if.then6

if.then6:                                         ; preds = %if.then
  %elemqu.i = getelementptr inbounds %class.flexarray.4, %class.flexarray.4* %barp, i64 0, i32 1
  %8 = load i32, i32* %elemqu.i, align 8, !tbaa !107
  %maxelemqu.i = getelementptr inbounds %class.flexarray.4, %class.flexarray.4* %barp, i64 0, i32 2
  %9 = load i32, i32* %maxelemqu.i, align 4, !tbaa !108
  %cmp.i = icmp eq i32 %8, %9
  br i1 %cmp.i, label %if.then.i, label %_ZN9flexarrayI6pointtE3addERKS0_.exit

if.then.i:                                        ; preds = %if.then6
  tail call void @_ZN9flexarrayI6pointtE8doublingEb(%class.flexarray.4* nonnull %barp, i1 true) #19
  %.pre.i = load i32, i32* %elemqu.i, align 8, !tbaa !107
  br label %_ZN9flexarrayI6pointtE3addERKS0_.exit

_ZN9flexarrayI6pointtE3addERKS0_.exit:            ; preds = %if.then6, %if.then.i
  %10 = phi i32 [ %.pre.i, %if.then.i ], [ %8, %if.then6 ]
  %ep.i = getelementptr inbounds %class.flexarray.4, %class.flexarray.4* %barp, i64 0, i32 0
  %11 = load %struct.pointt*, %struct.pointt** %ep.i, align 8, !tbaa !109
  %idxprom.i29 = sext i32 %10 to i64
  %arrayidx.i30 = getelementptr inbounds %struct.pointt, %struct.pointt* %11, i64 %idxprom.i29
  %12 = bitcast %struct.pointt* %arrayidx.i30 to i64*
  %ref.tmp.sroa.4.0.insert.ext = zext i32 %y to i64
  %ref.tmp.sroa.4.0.insert.shift = shl nuw i64 %ref.tmp.sroa.4.0.insert.ext, 32
  %ref.tmp.sroa.0.0.insert.ext = zext i32 %x to i64
  %ref.tmp.sroa.0.0.insert.insert = or i64 %ref.tmp.sroa.4.0.insert.shift, %ref.tmp.sroa.0.0.insert.ext
  store i64 %ref.tmp.sroa.0.0.insert.insert, i64* %12, align 4
  %13 = load i32, i32* %elemqu.i, align 8, !tbaa !107
  %inc.i = add nsw i32 %13, 1
  store i32 %inc.i, i32* %elemqu.i, align 8, !tbaa !107
  %regionp = getelementptr inbounds %class.regboundobj, %class.regboundobj* %this, i64 0, i32 5
  %14 = bitcast %class.regobj** %regionp to i64*
  %15 = load i64, i64* %14, align 8, !tbaa !118
  %regionmapp.i23 = getelementptr inbounds %class.regboundobj, %class.regboundobj* %this, i64 0, i32 10
  %16 = load %class.regobj**, %class.regobj*** %regionmapp.i23, align 8, !tbaa !119
  %17 = load i32, i32* %mapsizex.i, align 8, !tbaa !114
  %mul.i25 = mul nsw i32 %17, %y
  %add.i26 = add nsw i32 %mul.i25, %x
  %idxprom.i27 = sext i32 %add.i26 to i64
  %arrayidx.i28 = getelementptr inbounds %class.regobj*, %class.regobj** %16, i64 %idxprom.i27
  %18 = bitcast %class.regobj** %arrayidx.i28 to i64*
  store i64 %15, i64* %18, align 8, !tbaa !26
  %19 = load %class.regobj*, %class.regobj** %regionp, align 8, !tbaa !118
  %square = getelementptr inbounds %class.regobj, %class.regobj* %19, i64 0, i32 4
  %20 = load i32, i32* %square, align 8, !tbaa !36
  %inc = add nsw i32 %20, 1
  store i32 %inc, i32* %square, align 8, !tbaa !36
  br label %if.end10

if.else:                                          ; preds = %entry
  %regionmapp.i = getelementptr inbounds %class.regboundobj, %class.regboundobj* %this, i64 0, i32 10
  %21 = load %class.regobj**, %class.regobj*** %regionmapp.i, align 8, !tbaa !119
  %arrayidx.i22 = getelementptr inbounds %class.regobj*, %class.regobj** %21, i64 %idxprom.i
  store %class.regobj* null, %class.regobj** %arrayidx.i22, align 8, !tbaa !26
  br label %if.end10

if.end10:                                         ; preds = %if.then, %_ZN9flexarrayI6pointtE3addERKS0_.exit, %if.else
  ret void
}

; Function Attrs: optsize
define dso_local void @_ZN11regboundobj10makebound2ER9flexarrayI6pointtES3_(%class.regboundobj* nocapture readonly %this, %class.flexarray.4* nocapture readonly dereferenceable(16) %b1arp, %class.flexarray.4* dereferenceable(16) %b2arp) local_unnamed_addr #0 align 2 {
entry:
  %elemqu.i = getelementptr inbounds %class.flexarray.4, %class.flexarray.4* %b2arp, i64 0, i32 1
  store i32 0, i32* %elemqu.i, align 8, !tbaa !107
  %elemqu = getelementptr inbounds %class.flexarray.4, %class.flexarray.4* %b1arp, i64 0, i32 1
  %0 = load i32, i32* %elemqu, align 8, !tbaa !107
  %cmp86 = icmp sgt i32 %0, 0
  br i1 %cmp86, label %for.body.lr.ph, label %for.end39

for.body.lr.ph:                                   ; preds = %entry
  %ep.i = getelementptr inbounds %class.flexarray.4, %class.flexarray.4* %b1arp, i64 0, i32 0
  %mapmaxx = getelementptr inbounds %class.regboundobj, %class.regboundobj* %this, i64 0, i32 14
  %mapmaxy = getelementptr inbounds %class.regboundobj, %class.regboundobj* %this, i64 0, i32 15
  %regionmapp.i = getelementptr inbounds %class.regboundobj, %class.regboundobj* %this, i64 0, i32 10
  %mapsizex.i = getelementptr inbounds %class.regboundobj, %class.regboundobj* %this, i64 0, i32 12
  br label %for.body

for.body:                                         ; preds = %for.body.lr.ph, %for.inc37
  %indvars.iv = phi i64 [ 0, %for.body.lr.ph ], [ %indvars.iv.next, %for.inc37 ]
  %1 = load %struct.pointt*, %struct.pointt** %ep.i, align 8, !tbaa !109
  %x3 = getelementptr inbounds %struct.pointt, %struct.pointt* %1, i64 %indvars.iv, i32 0
  %2 = load i32, i32* %x3, align 4, !tbaa !110
  %sub = add nsw i32 %2, -1
  %y5 = getelementptr inbounds %struct.pointt, %struct.pointt* %1, i64 %indvars.iv, i32 1
  %3 = load i32, i32* %y5, align 4, !tbaa !111
  %sub6 = add nsw i32 %3, -1
  %add = add nsw i32 %2, 1
  %add11 = add nsw i32 %3, 1
  %cmp12.inv = icmp sgt i32 %2, 0
  %spec.select = select i1 %cmp12.inv, i32 %sub, i32 0
  %cmp13.inv = icmp sgt i32 %3, 0
  %y1.0 = select i1 %cmp13.inv, i32 %sub6, i32 0
  %4 = load i32, i32* %mapmaxx, align 8, !tbaa !120
  %cmp16 = icmp slt i32 %2, %4
  %spec.select68 = select i1 %cmp16, i32 %add, i32 %4
  %5 = load i32, i32* %mapmaxy, align 4, !tbaa !121
  %cmp20 = icmp slt i32 %3, %5
  %y2.0 = select i1 %cmp20, i32 %add11, i32 %5
  %cmp2583 = icmp sgt i32 %y1.0, %y2.0
  br i1 %cmp2583, label %for.inc37, label %for.cond27.preheader.lr.ph

for.cond27.preheader.lr.ph:                       ; preds = %for.body
  %cmp2880 = icmp sgt i32 %spec.select, %spec.select68
  br label %for.cond27.preheader

for.cond27.preheader:                             ; preds = %for.inc34, %for.cond27.preheader.lr.ph
  %y.084 = phi i32 [ %y1.0, %for.cond27.preheader.lr.ph ], [ %inc35, %for.inc34 ]
  br i1 %cmp2880, label %for.inc34, label %for.body29

for.body29:                                       ; preds = %for.cond27.preheader, %for.inc
  %x.081 = phi i32 [ %inc, %for.inc ], [ %spec.select, %for.cond27.preheader ]
  %6 = load %class.regobj**, %class.regobj*** %regionmapp.i, align 8, !tbaa !119
  %7 = load i32, i32* %mapsizex.i, align 8, !tbaa !114
  %mul.i = mul nsw i32 %7, %y.084
  %add.i = add nsw i32 %mul.i, %x.081
  %idxprom.i69 = sext i32 %add.i to i64
  %arrayidx.i70 = getelementptr inbounds %class.regobj*, %class.regobj** %6, i64 %idxprom.i69
  %8 = load %class.regobj*, %class.regobj** %arrayidx.i70, align 8, !tbaa !26
  %cmp31 = icmp eq %class.regobj* %8, null
  br i1 %cmp31, label %if.then32, label %for.inc

if.then32:                                        ; preds = %for.body29
  tail call void @_ZN11regboundobj10addtoboundER9flexarrayI6pointtEii(%class.regboundobj* nonnull %this, %class.flexarray.4* nonnull dereferenceable(16) %b2arp, i32 %x.081, i32 %y.084) #19
  br label %for.inc

for.inc:                                          ; preds = %for.body29, %if.then32
  %inc = add nsw i32 %x.081, 1
  %cmp28 = icmp slt i32 %x.081, %spec.select68
  br i1 %cmp28, label %for.body29, label %for.inc34

for.inc34:                                        ; preds = %for.inc, %for.cond27.preheader
  %inc35 = add nsw i32 %y.084, 1
  %cmp25 = icmp slt i32 %y.084, %y2.0
  br i1 %cmp25, label %for.cond27.preheader, label %for.inc37

for.inc37:                                        ; preds = %for.inc34, %for.body
  %indvars.iv.next = add nuw nsw i64 %indvars.iv, 1
  %9 = load i32, i32* %elemqu, align 8, !tbaa !107
  %10 = sext i32 %9 to i64
  %cmp = icmp slt i64 %indvars.iv.next, %10
  br i1 %cmp, label %for.body, label %for.end39

for.end39:                                        ; preds = %for.inc37, %entry
  ret void
}

; Function Attrs: optsize
define dso_local i1 @_ZN11regboundobj4stepEv(%class.regboundobj* %this) local_unnamed_addr #0 align 2 {
entry:
  %boundl = getelementptr inbounds %class.regboundobj, %class.regboundobj* %this, i64 0, i32 4
  %0 = load i32, i32* %boundl, align 4, !tbaa !122
  %cmp = icmp eq i32 %0, 0
  br i1 %cmp, label %return, label %lor.lhs.false

lor.lhs.false:                                    ; preds = %entry
  %flexist = getelementptr inbounds %class.regboundobj, %class.regboundobj* %this, i64 0, i32 17
  %1 = load i8, i8* %flexist, align 8, !tbaa !49, !range !45
  %cmp2 = icmp eq i8 %1, 0
  br i1 %cmp2, label %return, label %if.end

if.end:                                           ; preds = %lor.lhs.false
  %flodd = getelementptr inbounds %class.regboundobj, %class.regboundobj* %this, i64 0, i32 2
  %2 = load i8, i8* %flodd, align 8, !tbaa !123, !range !45
  %cmp5 = icmp eq i8 %2, 0
  br i1 %cmp5, label %if.then6, label %if.else

if.then6:                                         ; preds = %if.end
  %boundar = getelementptr inbounds %class.regboundobj, %class.regboundobj* %this, i64 0, i32 0
  %bound2arp = getelementptr inbounds %class.regboundobj, %class.regboundobj* %this, i64 0, i32 1
  tail call void @_ZN11regboundobj10makebound2ER9flexarrayI6pointtES3_(%class.regboundobj* nonnull %this, %class.flexarray.4* dereferenceable(16) %boundar, %class.flexarray.4* nonnull dereferenceable(16) %bound2arp) #19
  %elemqu = getelementptr inbounds %class.regboundobj, %class.regboundobj* %this, i64 0, i32 1, i32 1
  br label %if.end16

if.else:                                          ; preds = %if.end
  %bound2arp10 = getelementptr inbounds %class.regboundobj, %class.regboundobj* %this, i64 0, i32 1
  %boundar11 = getelementptr inbounds %class.regboundobj, %class.regboundobj* %this, i64 0, i32 0
  tail call void @_ZN11regboundobj10makebound2ER9flexarrayI6pointtES3_(%class.regboundobj* nonnull %this, %class.flexarray.4* nonnull dereferenceable(16) %bound2arp10, %class.flexarray.4* dereferenceable(16) %boundar11) #19
  %elemqu13 = getelementptr inbounds %class.regboundobj, %class.regboundobj* %this, i64 0, i32 0, i32 1
  br label %if.end16

if.end16:                                         ; preds = %if.else, %if.then6
  %storemerge21.in = phi i32* [ %elemqu, %if.then6 ], [ %elemqu13, %if.else ]
  %storemerge = phi i8 [ 1, %if.then6 ], [ 0, %if.else ]
  %storemerge21 = load i32, i32* %storemerge21.in, align 8, !tbaa !24
  store i32 %storemerge21, i32* %boundl, align 4, !tbaa !122
  store i8 %storemerge, i8* %flodd, align 8, !tbaa !123
  %cmp18 = icmp ne i32 %storemerge21, 0
  br label %return

return:                                           ; preds = %if.end16, %entry, %lor.lhs.false
  %retval.0 = phi i1 [ false, %lor.lhs.false ], [ false, %entry ], [ %cmp18, %if.end16 ]
  ret i1 %retval.0
}

; Function Attrs: optsize
define dso_local void @_ZN11regboundobj9firststepEiiP6regobjP9regmngobj(%class.regboundobj* %this, i32 %x0, i32 %y0, %class.regobj* %regionpin, %class.regmngobj* %regmngpin) local_unnamed_addr #0 align 2 {
entry:
  %xc = getelementptr inbounds %class.regboundobj, %class.regboundobj* %this, i64 0, i32 6
  store i32 %x0, i32* %xc, align 8, !tbaa !115
  %yc = getelementptr inbounds %class.regboundobj, %class.regboundobj* %this, i64 0, i32 7
  store i32 %y0, i32* %yc, align 4, !tbaa !116
  %regionp = getelementptr inbounds %class.regboundobj, %class.regboundobj* %this, i64 0, i32 5
  store %class.regobj* %regionpin, %class.regobj** %regionp, align 8, !tbaa !118
  %regmngp = getelementptr inbounds %class.regboundobj, %class.regboundobj* %this, i64 0, i32 16
  store %class.regmngobj* %regmngpin, %class.regmngobj** %regmngp, align 8, !tbaa !112
  %regionmapp = getelementptr inbounds %class.regmngobj, %class.regmngobj* %regmngpin, i64 0, i32 6
  %0 = bitcast %class.regobj*** %regionmapp to i64*
  %1 = load i64, i64* %0, align 8, !tbaa !27
  %regionmapp3 = getelementptr inbounds %class.regboundobj, %class.regboundobj* %this, i64 0, i32 10
  %2 = bitcast %class.regobj*** %regionmapp3 to i64*
  store i64 %1, i64* %2, align 8, !tbaa !119
  %landscapemapp = getelementptr inbounds %class.regmngobj, %class.regmngobj* %regmngpin, i64 0, i32 7
  %3 = bitcast i8** %landscapemapp to i64*
  %4 = load i64, i64* %3, align 8, !tbaa !28
  %landscapemapp5 = getelementptr inbounds %class.regboundobj, %class.regboundobj* %this, i64 0, i32 11
  %5 = bitcast i8** %landscapemapp5 to i64*
  store i64 %4, i64* %5, align 8, !tbaa !113
  %mapsizex = getelementptr inbounds %class.regmngobj, %class.regmngobj* %regmngpin, i64 0, i32 16
  %6 = load i32, i32* %mapsizex, align 4, !tbaa !30
  %mapsizex7 = getelementptr inbounds %class.regboundobj, %class.regboundobj* %this, i64 0, i32 12
  store i32 %6, i32* %mapsizex7, align 8, !tbaa !114
  %mapsizey = getelementptr inbounds %class.regmngobj, %class.regmngobj* %regmngpin, i64 0, i32 17
  %7 = load i32, i32* %mapsizey, align 8, !tbaa !31
  %mapsizey9 = getelementptr inbounds %class.regboundobj, %class.regboundobj* %this, i64 0, i32 13
  store i32 %7, i32* %mapsizey9, align 4, !tbaa !124
  %mapmaxx = getelementptr inbounds %class.regmngobj, %class.regmngobj* %regmngpin, i64 0, i32 12
  %8 = load i32, i32* %mapmaxx, align 4, !tbaa !32
  %mapmaxx11 = getelementptr inbounds %class.regboundobj, %class.regboundobj* %this, i64 0, i32 14
  store i32 %8, i32* %mapmaxx11, align 8, !tbaa !120
  %mapmaxy = getelementptr inbounds %class.regmngobj, %class.regmngobj* %regmngpin, i64 0, i32 13
  %9 = load i32, i32* %mapmaxy, align 8, !tbaa !33
  %mapmaxy13 = getelementptr inbounds %class.regboundobj, %class.regboundobj* %this, i64 0, i32 15
  store i32 %9, i32* %mapmaxy13, align 4, !tbaa !121
  %regionradius = getelementptr inbounds %class.regmngobj, %class.regmngobj* %regmngpin, i64 0, i32 9
  %10 = load i32, i32* %regionradius, align 8, !tbaa !55
  %regionradius15 = getelementptr inbounds %class.regboundobj, %class.regboundobj* %this, i64 0, i32 8
  store i32 %10, i32* %regionradius15, align 8, !tbaa !125
  %mul = mul nsw i32 %10, %10
  %regionradius2 = getelementptr inbounds %class.regboundobj, %class.regboundobj* %this, i64 0, i32 9
  store i32 %mul, i32* %regionradius2, align 4, !tbaa !117
  %flexist = getelementptr inbounds %class.regboundobj, %class.regboundobj* %this, i64 0, i32 17
  %11 = load i8, i8* %flexist, align 8, !tbaa !49, !range !45
  %cmp = icmp eq i8 %11, 0
  br i1 %cmp, label %cleanup, label %if.end

if.end:                                           ; preds = %entry
  %square = getelementptr inbounds %class.regobj, %class.regobj* %regionpin, i64 0, i32 4
  store i32 0, i32* %square, align 8, !tbaa !36
  %boundar = getelementptr inbounds %class.regboundobj, %class.regboundobj* %this, i64 0, i32 0
  %maxelemqu.i = getelementptr inbounds %class.regboundobj, %class.regboundobj* %this, i64 0, i32 0, i32 2
  store i32 128, i32* %maxelemqu.i, align 4, !tbaa !108
  %elemqu.i = getelementptr inbounds %class.regboundobj, %class.regboundobj* %this, i64 0, i32 0, i32 1
  store i32 0, i32* %elemqu.i, align 8, !tbaa !107
  %call.i.i = tail call noalias dereferenceable_or_null(1024) i8* @malloc(i64 1024) #20
  %12 = bitcast %class.regboundobj* %this to i8**
  store i8* %call.i.i, i8** %12, align 8, !tbaa !109
  %bound2arp = getelementptr inbounds %class.regboundobj, %class.regboundobj* %this, i64 0, i32 1
  %maxelemqu.i77 = getelementptr inbounds %class.regboundobj, %class.regboundobj* %this, i64 0, i32 1, i32 2
  store i32 128, i32* %maxelemqu.i77, align 4, !tbaa !108
  %elemqu.i78 = getelementptr inbounds %class.regboundobj, %class.regboundobj* %this, i64 0, i32 1, i32 1
  store i32 0, i32* %elemqu.i78, align 8, !tbaa !107
  %call.i.i79 = tail call noalias dereferenceable_or_null(1024) i8* @malloc(i64 1024) #20
  %13 = bitcast %class.flexarray.4* %bound2arp to i8**
  store i8* %call.i.i79, i8** %13, align 8, !tbaa !109
  %sub = add nsw i32 %x0, -1
  %sub19 = add nsw i32 %y0, -1
  %add = add nsw i32 %x0, 1
  %add20 = add nsw i32 %y0, 1
  %cmp21.inv = icmp sgt i32 %x0, 0
  %spec.select = select i1 %cmp21.inv, i32 %sub, i32 0
  %cmp24.inv = icmp sgt i32 %y0, 0
  %y1.0 = select i1 %cmp24.inv, i32 %sub19, i32 0
  %cmp28 = icmp sgt i32 %8, %x0
  %spec.select76 = select i1 %cmp28, i32 %add, i32 %8
  %cmp33 = icmp sgt i32 %9, %y0
  %y2.0 = select i1 %cmp33, i32 %add20, i32 %9
  %cmp3783 = icmp sgt i32 %y1.0, %y2.0
  br i1 %cmp3783, label %for.end47, label %for.cond38.preheader.lr.ph

for.cond38.preheader.lr.ph:                       ; preds = %if.end
  %cmp3980 = icmp sgt i32 %spec.select, %spec.select76
  br label %for.cond38.preheader

for.cond38.preheader:                             ; preds = %for.inc45, %for.cond38.preheader.lr.ph
  %y.084 = phi i32 [ %y1.0, %for.cond38.preheader.lr.ph ], [ %inc46, %for.inc45 ]
  br i1 %cmp3980, label %for.inc45, label %for.body40

for.body40:                                       ; preds = %for.cond38.preheader, %for.inc
  %x.081 = phi i32 [ %inc, %for.inc ], [ %spec.select, %for.cond38.preheader ]
  %14 = load %class.regobj**, %class.regobj*** %regionmapp3, align 8, !tbaa !119
  %15 = load i32, i32* %mapsizex7, align 8, !tbaa !114
  %mul.i = mul nsw i32 %15, %y.084
  %add.i = add nsw i32 %mul.i, %x.081
  %idxprom.i = sext i32 %add.i to i64
  %arrayidx.i = getelementptr inbounds %class.regobj*, %class.regobj** %14, i64 %idxprom.i
  %16 = load %class.regobj*, %class.regobj** %arrayidx.i, align 8, !tbaa !26
  %cmp41 = icmp eq %class.regobj* %16, null
  br i1 %cmp41, label %if.then42, label %for.inc

if.then42:                                        ; preds = %for.body40
  tail call void @_ZN11regboundobj10addtoboundER9flexarrayI6pointtEii(%class.regboundobj* nonnull %this, %class.flexarray.4* nonnull dereferenceable(16) %boundar, i32 %x.081, i32 %y.084) #19
  br label %for.inc

for.inc:                                          ; preds = %for.body40, %if.then42
  %inc = add nsw i32 %x.081, 1
  %cmp39 = icmp slt i32 %x.081, %spec.select76
  br i1 %cmp39, label %for.body40, label %for.inc45

for.inc45:                                        ; preds = %for.inc, %for.cond38.preheader
  %inc46 = add nsw i32 %y.084, 1
  %cmp37 = icmp slt i32 %y.084, %y2.0
  br i1 %cmp37, label %for.cond38.preheader, label %for.end47.loopexit

for.end47.loopexit:                               ; preds = %for.inc45
  %.pre = load i32, i32* %elemqu.i, align 8, !tbaa !126
  br label %for.end47

for.end47:                                        ; preds = %for.end47.loopexit, %if.end
  %17 = phi i32 [ %.pre, %for.end47.loopexit ], [ 0, %if.end ]
  %flodd = getelementptr inbounds %class.regboundobj, %class.regboundobj* %this, i64 0, i32 2
  store i8 0, i8* %flodd, align 8, !tbaa !123
  br label %cleanup

cleanup:                                          ; preds = %entry, %for.end47
  %.sink = phi i32 [ %17, %for.end47 ], [ 0, %entry ]
  %boundl49 = getelementptr inbounds %class.regboundobj, %class.regboundobj* %this, i64 0, i32 4
  store i32 %.sink, i32* %boundl49, align 4, !tbaa !122
  ret void
}

; Function Attrs: nounwind optsize
define dso_local void @_ZN11regboundobj7destroyEv(%class.regboundobj* nocapture readonly %this) local_unnamed_addr #8 align 2 {
entry:
  %0 = bitcast %class.regboundobj* %this to i8**
  %1 = load i8*, i8** %0, align 8, !tbaa !109
  tail call void @free(i8* %1) #20
  %bound2arp = getelementptr inbounds %class.regboundobj, %class.regboundobj* %this, i64 0, i32 1
  %2 = bitcast %class.flexarray.4* %bound2arp to i8**
  %3 = load i8*, i8** %2, align 8, !tbaa !109
  tail call void @free(i8* %3) #20
  ret void
}

; Function Attrs: norecurse nounwind optsize readonly
define dso_local i1 @_ZN6wayobj5ismapEii(%class.wayobj* nocapture readonly %this, i32 %x, i32 %y) local_unnamed_addr #14 align 2 {
entry:
  %cmp = icmp slt i32 %x, 1
  %cmp2 = icmp slt i32 %y, 1
  %or.cond = or i1 %cmp, %cmp2
  br i1 %or.cond, label %return, label %if.end4

if.end4:                                          ; preds = %entry
  %mapmaxx1 = getelementptr inbounds %class.wayobj, %class.wayobj* %this, i64 0, i32 5
  %0 = load i32, i32* %mapmaxx1, align 4, !tbaa !75
  %cmp5 = icmp slt i32 %0, %x
  br i1 %cmp5, label %return, label %if.end7

if.end7:                                          ; preds = %if.end4
  %mapmaxy1 = getelementptr inbounds %class.wayobj, %class.wayobj* %this, i64 0, i32 6
  %1 = load i32, i32* %mapmaxy1, align 8, !tbaa !76
  %cmp8 = icmp sge i32 %1, %y
  br label %return

return:                                           ; preds = %if.end7, %if.end4, %entry
  %retval.0 = phi i1 [ false, %entry ], [ false, %if.end4 ], [ %cmp8, %if.end7 ]
  ret i1 %retval.0
}

; Function Attrs: nounwind optsize readonly
define dso_local i1 @_ZN6wayobj10ismoveableEff(%class.wayobj* nocapture readonly %this, float %x, float %y) local_unnamed_addr #15 align 2 {
entry:
  %xcoef1.i = getelementptr inbounds %class.wayobj, %class.wayobj* %this, i64 0, i32 9
  %0 = load float, float* %xcoef1.i, align 4, !tbaa !70
  %xcoef2.i = getelementptr inbounds %class.wayobj, %class.wayobj* %this, i64 0, i32 10
  %1 = load float, float* %xcoef2.i, align 8, !tbaa !71
  %2 = tail call float @llvm.fmuladd.f32(float %x, float %0, float %1) #21
  %conv.i = fptosi float %2 to i32
  %ycoef1.i = getelementptr inbounds %class.wayobj, %class.wayobj* %this, i64 0, i32 11
  %3 = load float, float* %ycoef1.i, align 4, !tbaa !73
  %ycoef2.i = getelementptr inbounds %class.wayobj, %class.wayobj* %this, i64 0, i32 12
  %4 = load float, float* %ycoef2.i, align 8, !tbaa !74
  %5 = tail call float @llvm.fmuladd.f32(float %y, float %3, float %4) #21
  %conv.i12 = fptosi float %5 to i32
  %cmp.i = icmp slt i32 %conv.i, 1
  %cmp2.i = icmp slt i32 %conv.i12, 1
  %or.cond.i = or i1 %cmp.i, %cmp2.i
  br i1 %or.cond.i, label %cleanup, label %if.end4.i

if.end4.i:                                        ; preds = %entry
  %mapmaxx1.i = getelementptr inbounds %class.wayobj, %class.wayobj* %this, i64 0, i32 5
  %6 = load i32, i32* %mapmaxx1.i, align 4, !tbaa !75
  %cmp5.i = icmp slt i32 %6, %conv.i
  br i1 %cmp5.i, label %cleanup, label %_ZN6wayobj5ismapEii.exit

_ZN6wayobj5ismapEii.exit:                         ; preds = %if.end4.i
  %mapmaxy1.i = getelementptr inbounds %class.wayobj, %class.wayobj* %this, i64 0, i32 6
  %7 = load i32, i32* %mapmaxy1.i, align 8, !tbaa !76
  %cmp8.i = icmp slt i32 %7, %conv.i12
  br i1 %cmp8.i, label %cleanup, label %if.end

if.end:                                           ; preds = %_ZN6wayobj5ismapEii.exit
  %maparp.i = getelementptr inbounds %class.wayobj, %class.wayobj* %this, i64 0, i32 17
  %8 = load i16*, i16** %maparp.i, align 8, !tbaa !83
  %shift.i = getelementptr inbounds %class.wayobj, %class.wayobj* %this, i64 0, i32 2
  %9 = load i32, i32* %shift.i, align 8, !tbaa !84
  %shl.i = shl i32 %conv.i12, %9
  %or.i = or i32 %shl.i, %conv.i
  %idxprom.i = sext i32 %or.i to i64
  %arrayidx.i = getelementptr inbounds i16, i16* %8, i64 %idxprom.i
  %10 = load i16, i16* %arrayidx.i, align 2, !tbaa !85
  %tobool = icmp eq i16 %10, 0
  br label %cleanup

cleanup:                                          ; preds = %_ZN6wayobj5ismapEii.exit, %if.end4.i, %entry, %if.end
  %retval.0 = phi i1 [ false, %_ZN6wayobj5ismapEii.exit ], [ %tobool, %if.end ], [ false, %entry ], [ false, %if.end4.i ]
  ret i1 %retval.0
}

; Function Attrs: norecurse nounwind optsize readonly
define dso_local %class.rvectort @_ZN6wayobj8getpointEi(%class.wayobj* nocapture readonly %this, i32 %index) local_unnamed_addr #14 align 2 {
entry:
  %indexxmask = getelementptr inbounds %class.wayobj, %class.wayobj* %this, i64 0, i32 22
  %0 = load i32, i32* %indexxmask, align 4, !tbaa !102
  %and = and i32 %0, %index
  %shift = getelementptr inbounds %class.wayobj, %class.wayobj* %this, i64 0, i32 2
  %1 = load i32, i32* %shift, align 8, !tbaa !84
  %shr = ashr i32 %index, %1
  %minx = getelementptr inbounds %class.wayobj, %class.wayobj* %this, i64 0, i32 14, i32 0
  %2 = load float, float* %minx, align 8, !tbaa !77
  %cellr = getelementptr inbounds %class.wayobj, %class.wayobj* %this, i64 0, i32 13
  %3 = load float, float* %cellr, align 4, !tbaa !69
  %add = fadd float %2, %3
  %conv = sitofp i32 %and to float
  %maxx = getelementptr inbounds %class.wayobj, %class.wayobj* %this, i64 0, i32 14, i32 1
  %4 = load float, float* %maxx, align 4, !tbaa !78
  %sub = fsub float %4, %2
  %mul = fmul float %sub, %conv
  %maplx = getelementptr inbounds %class.wayobj, %class.wayobj* %this, i64 0, i32 7
  %5 = load i32, i32* %maplx, align 4, !tbaa !79
  %conv5 = sitofp i32 %5 to float
  %div = fdiv float %mul, %conv5
  %add6 = fadd float %add, %div
  %miny = getelementptr inbounds %class.wayobj, %class.wayobj* %this, i64 0, i32 14, i32 2
  %6 = load float, float* %miny, align 8, !tbaa !80
  %add11 = fadd float %3, %6
  %conv12 = sitofp i32 %shr to float
  %maxy = getelementptr inbounds %class.wayobj, %class.wayobj* %this, i64 0, i32 14, i32 3
  %7 = load float, float* %maxy, align 4, !tbaa !81
  %sub16 = fsub float %7, %6
  %mul17 = fmul float %sub16, %conv12
  %maply = getelementptr inbounds %class.wayobj, %class.wayobj* %this, i64 0, i32 8
  %8 = load i32, i32* %maply, align 8, !tbaa !82
  %conv18 = sitofp i32 %8 to float
  %div19 = fdiv float %mul17, %conv18
  %add20 = fadd float %add11, %div19
  %.fca.0.insert = insertvalue %class.rvectort undef, float %add6, 0
  %.fca.1.insert = insertvalue %class.rvectort %.fca.0.insert, float 0.000000e+00, 1
  %.fca.2.insert = insertvalue %class.rvectort %.fca.1.insert, float %add20, 2
  ret %class.rvectort %.fca.2.insert
}

; Function Attrs: nofree norecurse nounwind optsize
define dso_local i32 @_ZN6wayobj10makebound2EPiiS0_(%class.wayobj* %this, i32* nocapture readonly %bound1p, i32 %bound1l, i32* nocapture %bound2p) local_unnamed_addr #9 align 2 {
entry:
  %maply = getelementptr inbounds %class.wayobj, %class.wayobj* %this, i64 0, i32 8
  %0 = load i32, i32* %maply, align 8, !tbaa !82
  %waymap2 = getelementptr inbounds %class.wayobj, %class.wayobj* %this, i64 0, i32 18
  %1 = load %struct.waymapcellt*, %struct.waymapcellt** %waymap2, align 8, !tbaa !88
  %cmp400 = icmp sgt i32 %bound1l, 0
  br i1 %cmp400, label %for.body.lr.ph, label %cleanup

for.body.lr.ph:                                   ; preds = %entry
  %fillnum6 = getelementptr inbounds %class.wayobj, %class.wayobj* %this, i64 0, i32 27
  %2 = load i16, i16* %fillnum6, align 2, !tbaa !103
  %maparp = getelementptr inbounds %class.wayobj, %class.wayobj* %this, i64 0, i32 17
  %step = getelementptr inbounds %class.wayobj, %class.wayobj* %this, i64 0, i32 26
  %endindex = getelementptr inbounds %class.wayobj, %class.wayobj* %this, i64 0, i32 25
  %maxboundlength = getelementptr inbounds %class.wayobj, %class.wayobj* %this, i64 0, i32 21
  %wide.trip.count = zext i32 %bound1l to i64
  br label %for.body

for.body:                                         ; preds = %if.end258, %for.body.lr.ph
  %indvars.iv = phi i64 [ 0, %for.body.lr.ph ], [ %indvars.iv.next, %if.end258 ]
  %bound2l.0401 = phi i32 [ 0, %for.body.lr.ph ], [ %spec.select, %if.end258 ]
  %arrayidx = getelementptr inbounds i32, i32* %bound1p, i64 %indvars.iv
  %3 = load i32, i32* %arrayidx, align 4, !tbaa !24
  %sub = sub nsw i32 %3, %0
  %sub3 = add nsw i32 %sub, -1
  %idxprom4 = sext i32 %sub3 to i64
  %fillnum = getelementptr inbounds %struct.waymapcellt, %struct.waymapcellt* %1, i64 %idxprom4, i32 0
  %4 = load i16, i16* %fillnum, align 2, !tbaa !127
  %cmp8 = icmp eq i16 %4, %2
  br i1 %cmp8, label %if.end25, label %if.then

if.then:                                          ; preds = %for.body
  %5 = load i16*, i16** %maparp, align 8, !tbaa !83
  %arrayidx10 = getelementptr inbounds i16, i16* %5, i64 %idxprom4
  %6 = load i16, i16* %arrayidx10, align 2, !tbaa !85
  %cmp12 = icmp eq i16 %6, 0
  br i1 %cmp12, label %if.then13, label %if.end25

if.then13:                                        ; preds = %if.then
  %idxprom14 = sext i32 %bound2l.0401 to i64
  %arrayidx15 = getelementptr inbounds i32, i32* %bound2p, i64 %idxprom14
  store i32 %sub3, i32* %arrayidx15, align 4, !tbaa !24
  %inc = add nsw i32 %bound2l.0401, 1
  store i16 %2, i16* %fillnum, align 2, !tbaa !127
  %7 = load i16, i16* %step, align 8, !tbaa !129
  %num = getelementptr inbounds %struct.waymapcellt, %struct.waymapcellt* %1, i64 %idxprom4, i32 1
  store i16 %7, i16* %num, align 2, !tbaa !130
  %8 = load i32, i32* %endindex, align 4, !tbaa !131
  %cmp22 = icmp eq i32 %sub3, %8
  br i1 %cmp22, label %if.then23, label %if.end25

if.then23:                                        ; preds = %if.then13
  %flend = getelementptr inbounds %class.wayobj, %class.wayobj* %this, i64 0, i32 23
  store i8 1, i8* %flend, align 8, !tbaa !132
  br label %cleanup

if.end25:                                         ; preds = %for.body, %if.then, %if.then13
  %bound2l.1 = phi i32 [ %inc, %if.then13 ], [ %bound2l.0401, %if.then ], [ %bound2l.0401, %for.body ]
  %idxprom27 = sext i32 %sub to i64
  %fillnum29 = getelementptr inbounds %struct.waymapcellt, %struct.waymapcellt* %1, i64 %idxprom27, i32 0
  %9 = load i16, i16* %fillnum29, align 2, !tbaa !127
  %cmp33 = icmp eq i16 %9, %2
  br i1 %cmp33, label %if.end58, label %if.then34

if.then34:                                        ; preds = %if.end25
  %10 = load i16*, i16** %maparp, align 8, !tbaa !83
  %arrayidx37 = getelementptr inbounds i16, i16* %10, i64 %idxprom27
  %11 = load i16, i16* %arrayidx37, align 2, !tbaa !85
  %cmp39 = icmp eq i16 %11, 0
  br i1 %cmp39, label %if.then40, label %if.end58

if.then40:                                        ; preds = %if.then34
  %idxprom41 = sext i32 %bound2l.1 to i64
  %arrayidx42 = getelementptr inbounds i32, i32* %bound2p, i64 %idxprom41
  store i32 %sub, i32* %arrayidx42, align 4, !tbaa !24
  %inc43 = add nsw i32 %bound2l.1, 1
  store i16 %2, i16* %fillnum29, align 2, !tbaa !127
  %12 = load i16, i16* %step, align 8, !tbaa !129
  %num51 = getelementptr inbounds %struct.waymapcellt, %struct.waymapcellt* %1, i64 %idxprom27, i32 1
  store i16 %12, i16* %num51, align 2, !tbaa !130
  %13 = load i32, i32* %endindex, align 4, !tbaa !131
  %cmp53 = icmp eq i32 %sub, %13
  br i1 %cmp53, label %if.then54, label %if.end58

if.then54:                                        ; preds = %if.then40
  %flend55 = getelementptr inbounds %class.wayobj, %class.wayobj* %this, i64 0, i32 23
  store i8 1, i8* %flend55, align 8, !tbaa !132
  br label %cleanup

if.end58:                                         ; preds = %if.end25, %if.then34, %if.then40
  %bound2l.2 = phi i32 [ %inc43, %if.then40 ], [ %bound2l.1, %if.then34 ], [ %bound2l.1, %if.end25 ]
  %add = add nsw i32 %sub, 1
  %idxprom60 = sext i32 %add to i64
  %fillnum62 = getelementptr inbounds %struct.waymapcellt, %struct.waymapcellt* %1, i64 %idxprom60, i32 0
  %14 = load i16, i16* %fillnum62, align 2, !tbaa !127
  %cmp66 = icmp eq i16 %14, %2
  br i1 %cmp66, label %if.end91, label %if.then67

if.then67:                                        ; preds = %if.end58
  %15 = load i16*, i16** %maparp, align 8, !tbaa !83
  %arrayidx70 = getelementptr inbounds i16, i16* %15, i64 %idxprom60
  %16 = load i16, i16* %arrayidx70, align 2, !tbaa !85
  %cmp72 = icmp eq i16 %16, 0
  br i1 %cmp72, label %if.then73, label %if.end91

if.then73:                                        ; preds = %if.then67
  %idxprom74 = sext i32 %bound2l.2 to i64
  %arrayidx75 = getelementptr inbounds i32, i32* %bound2p, i64 %idxprom74
  store i32 %add, i32* %arrayidx75, align 4, !tbaa !24
  %inc76 = add nsw i32 %bound2l.2, 1
  store i16 %2, i16* %fillnum62, align 2, !tbaa !127
  %17 = load i16, i16* %step, align 8, !tbaa !129
  %num84 = getelementptr inbounds %struct.waymapcellt, %struct.waymapcellt* %1, i64 %idxprom60, i32 1
  store i16 %17, i16* %num84, align 2, !tbaa !130
  %18 = load i32, i32* %endindex, align 4, !tbaa !131
  %cmp86 = icmp eq i32 %add, %18
  br i1 %cmp86, label %if.then87, label %if.end91

if.then87:                                        ; preds = %if.then73
  %flend88 = getelementptr inbounds %class.wayobj, %class.wayobj* %this, i64 0, i32 23
  store i8 1, i8* %flend88, align 8, !tbaa !132
  br label %cleanup

if.end91:                                         ; preds = %if.end58, %if.then67, %if.then73
  %bound2l.3 = phi i32 [ %inc76, %if.then73 ], [ %bound2l.2, %if.then67 ], [ %bound2l.2, %if.end58 ]
  %sub92 = add nsw i32 %3, -1
  %idxprom93 = sext i32 %sub92 to i64
  %fillnum95 = getelementptr inbounds %struct.waymapcellt, %struct.waymapcellt* %1, i64 %idxprom93, i32 0
  %19 = load i16, i16* %fillnum95, align 2, !tbaa !127
  %cmp99 = icmp eq i16 %19, %2
  br i1 %cmp99, label %if.end124, label %if.then100

if.then100:                                       ; preds = %if.end91
  %20 = load i16*, i16** %maparp, align 8, !tbaa !83
  %arrayidx103 = getelementptr inbounds i16, i16* %20, i64 %idxprom93
  %21 = load i16, i16* %arrayidx103, align 2, !tbaa !85
  %cmp105 = icmp eq i16 %21, 0
  br i1 %cmp105, label %if.then106, label %if.end124

if.then106:                                       ; preds = %if.then100
  %idxprom107 = sext i32 %bound2l.3 to i64
  %arrayidx108 = getelementptr inbounds i32, i32* %bound2p, i64 %idxprom107
  store i32 %sub92, i32* %arrayidx108, align 4, !tbaa !24
  %inc109 = add nsw i32 %bound2l.3, 1
  store i16 %2, i16* %fillnum95, align 2, !tbaa !127
  %22 = load i16, i16* %step, align 8, !tbaa !129
  %num117 = getelementptr inbounds %struct.waymapcellt, %struct.waymapcellt* %1, i64 %idxprom93, i32 1
  store i16 %22, i16* %num117, align 2, !tbaa !130
  %23 = load i32, i32* %endindex, align 4, !tbaa !131
  %cmp119 = icmp eq i32 %sub92, %23
  br i1 %cmp119, label %if.then120, label %if.end124

if.then120:                                       ; preds = %if.then106
  %flend121 = getelementptr inbounds %class.wayobj, %class.wayobj* %this, i64 0, i32 23
  store i8 1, i8* %flend121, align 8, !tbaa !132
  br label %cleanup

if.end124:                                        ; preds = %if.end91, %if.then100, %if.then106
  %bound2l.4 = phi i32 [ %inc109, %if.then106 ], [ %bound2l.3, %if.then100 ], [ %bound2l.3, %if.end91 ]
  %add125 = add nsw i32 %3, 1
  %idxprom126 = sext i32 %add125 to i64
  %fillnum128 = getelementptr inbounds %struct.waymapcellt, %struct.waymapcellt* %1, i64 %idxprom126, i32 0
  %24 = load i16, i16* %fillnum128, align 2, !tbaa !127
  %cmp132 = icmp eq i16 %24, %2
  br i1 %cmp132, label %if.end157, label %if.then133

if.then133:                                       ; preds = %if.end124
  %25 = load i16*, i16** %maparp, align 8, !tbaa !83
  %arrayidx136 = getelementptr inbounds i16, i16* %25, i64 %idxprom126
  %26 = load i16, i16* %arrayidx136, align 2, !tbaa !85
  %cmp138 = icmp eq i16 %26, 0
  br i1 %cmp138, label %if.then139, label %if.end157

if.then139:                                       ; preds = %if.then133
  %idxprom140 = sext i32 %bound2l.4 to i64
  %arrayidx141 = getelementptr inbounds i32, i32* %bound2p, i64 %idxprom140
  store i32 %add125, i32* %arrayidx141, align 4, !tbaa !24
  %inc142 = add nsw i32 %bound2l.4, 1
  store i16 %2, i16* %fillnum128, align 2, !tbaa !127
  %27 = load i16, i16* %step, align 8, !tbaa !129
  %num150 = getelementptr inbounds %struct.waymapcellt, %struct.waymapcellt* %1, i64 %idxprom126, i32 1
  store i16 %27, i16* %num150, align 2, !tbaa !130
  %28 = load i32, i32* %endindex, align 4, !tbaa !131
  %cmp152 = icmp eq i32 %add125, %28
  br i1 %cmp152, label %if.then153, label %if.end157

if.then153:                                       ; preds = %if.then139
  %flend154 = getelementptr inbounds %class.wayobj, %class.wayobj* %this, i64 0, i32 23
  store i8 1, i8* %flend154, align 8, !tbaa !132
  br label %cleanup

if.end157:                                        ; preds = %if.end124, %if.then133, %if.then139
  %bound2l.5 = phi i32 [ %inc142, %if.then139 ], [ %bound2l.4, %if.then133 ], [ %bound2l.4, %if.end124 ]
  %add158 = add nsw i32 %3, %0
  %sub159 = add nsw i32 %add158, -1
  %idxprom160 = sext i32 %sub159 to i64
  %fillnum162 = getelementptr inbounds %struct.waymapcellt, %struct.waymapcellt* %1, i64 %idxprom160, i32 0
  %29 = load i16, i16* %fillnum162, align 2, !tbaa !127
  %cmp166 = icmp eq i16 %29, %2
  br i1 %cmp166, label %if.end191, label %if.then167

if.then167:                                       ; preds = %if.end157
  %30 = load i16*, i16** %maparp, align 8, !tbaa !83
  %arrayidx170 = getelementptr inbounds i16, i16* %30, i64 %idxprom160
  %31 = load i16, i16* %arrayidx170, align 2, !tbaa !85
  %cmp172 = icmp eq i16 %31, 0
  br i1 %cmp172, label %if.then173, label %if.end191

if.then173:                                       ; preds = %if.then167
  %idxprom174 = sext i32 %bound2l.5 to i64
  %arrayidx175 = getelementptr inbounds i32, i32* %bound2p, i64 %idxprom174
  store i32 %sub159, i32* %arrayidx175, align 4, !tbaa !24
  %inc176 = add nsw i32 %bound2l.5, 1
  store i16 %2, i16* %fillnum162, align 2, !tbaa !127
  %32 = load i16, i16* %step, align 8, !tbaa !129
  %num184 = getelementptr inbounds %struct.waymapcellt, %struct.waymapcellt* %1, i64 %idxprom160, i32 1
  store i16 %32, i16* %num184, align 2, !tbaa !130
  %33 = load i32, i32* %endindex, align 4, !tbaa !131
  %cmp186 = icmp eq i32 %sub159, %33
  br i1 %cmp186, label %if.then187, label %if.end191

if.then187:                                       ; preds = %if.then173
  %flend188 = getelementptr inbounds %class.wayobj, %class.wayobj* %this, i64 0, i32 23
  store i8 1, i8* %flend188, align 8, !tbaa !132
  br label %cleanup

if.end191:                                        ; preds = %if.end157, %if.then167, %if.then173
  %bound2l.6 = phi i32 [ %inc176, %if.then173 ], [ %bound2l.5, %if.then167 ], [ %bound2l.5, %if.end157 ]
  %idxprom193 = sext i32 %add158 to i64
  %fillnum195 = getelementptr inbounds %struct.waymapcellt, %struct.waymapcellt* %1, i64 %idxprom193, i32 0
  %34 = load i16, i16* %fillnum195, align 2, !tbaa !127
  %cmp199 = icmp eq i16 %34, %2
  br i1 %cmp199, label %if.end224, label %if.then200

if.then200:                                       ; preds = %if.end191
  %35 = load i16*, i16** %maparp, align 8, !tbaa !83
  %arrayidx203 = getelementptr inbounds i16, i16* %35, i64 %idxprom193
  %36 = load i16, i16* %arrayidx203, align 2, !tbaa !85
  %cmp205 = icmp eq i16 %36, 0
  br i1 %cmp205, label %if.then206, label %if.end224

if.then206:                                       ; preds = %if.then200
  %idxprom207 = sext i32 %bound2l.6 to i64
  %arrayidx208 = getelementptr inbounds i32, i32* %bound2p, i64 %idxprom207
  store i32 %add158, i32* %arrayidx208, align 4, !tbaa !24
  %inc209 = add nsw i32 %bound2l.6, 1
  store i16 %2, i16* %fillnum195, align 2, !tbaa !127
  %37 = load i16, i16* %step, align 8, !tbaa !129
  %num217 = getelementptr inbounds %struct.waymapcellt, %struct.waymapcellt* %1, i64 %idxprom193, i32 1
  store i16 %37, i16* %num217, align 2, !tbaa !130
  %38 = load i32, i32* %endindex, align 4, !tbaa !131
  %cmp219 = icmp eq i32 %add158, %38
  br i1 %cmp219, label %if.then220, label %if.end224

if.then220:                                       ; preds = %if.then206
  %flend221 = getelementptr inbounds %class.wayobj, %class.wayobj* %this, i64 0, i32 23
  store i8 1, i8* %flend221, align 8, !tbaa !132
  br label %cleanup

if.end224:                                        ; preds = %if.end191, %if.then200, %if.then206
  %bound2l.7 = phi i32 [ %inc209, %if.then206 ], [ %bound2l.6, %if.then200 ], [ %bound2l.6, %if.end191 ]
  %add226 = add nsw i32 %add158, 1
  %idxprom227 = sext i32 %add226 to i64
  %fillnum229 = getelementptr inbounds %struct.waymapcellt, %struct.waymapcellt* %1, i64 %idxprom227, i32 0
  %39 = load i16, i16* %fillnum229, align 2, !tbaa !127
  %cmp233 = icmp eq i16 %39, %2
  br i1 %cmp233, label %if.end258, label %if.then234

if.then234:                                       ; preds = %if.end224
  %40 = load i16*, i16** %maparp, align 8, !tbaa !83
  %arrayidx237 = getelementptr inbounds i16, i16* %40, i64 %idxprom227
  %41 = load i16, i16* %arrayidx237, align 2, !tbaa !85
  %cmp239 = icmp eq i16 %41, 0
  br i1 %cmp239, label %if.then240, label %if.end258

if.then240:                                       ; preds = %if.then234
  %idxprom241 = sext i32 %bound2l.7 to i64
  %arrayidx242 = getelementptr inbounds i32, i32* %bound2p, i64 %idxprom241
  store i32 %add226, i32* %arrayidx242, align 4, !tbaa !24
  %inc243 = add nsw i32 %bound2l.7, 1
  store i16 %2, i16* %fillnum229, align 2, !tbaa !127
  %42 = load i16, i16* %step, align 8, !tbaa !129
  %num251 = getelementptr inbounds %struct.waymapcellt, %struct.waymapcellt* %1, i64 %idxprom227, i32 1
  store i16 %42, i16* %num251, align 2, !tbaa !130
  %43 = load i32, i32* %endindex, align 4, !tbaa !131
  %cmp253 = icmp eq i32 %add226, %43
  br i1 %cmp253, label %if.then254, label %if.end258

if.then254:                                       ; preds = %if.then240
  %flend255 = getelementptr inbounds %class.wayobj, %class.wayobj* %this, i64 0, i32 23
  store i8 1, i8* %flend255, align 8, !tbaa !132
  br label %cleanup

if.end258:                                        ; preds = %if.end224, %if.then234, %if.then240
  %bound2l.8 = phi i32 [ %inc243, %if.then240 ], [ %bound2l.7, %if.then234 ], [ %bound2l.7, %if.end224 ]
  %44 = load i32, i32* %maxboundlength, align 8, !tbaa !99
  %cmp259 = icmp slt i32 %bound2l.8, %44
  %sub262 = add nsw i32 %44, -1
  %spec.select = select i1 %cmp259, i32 %bound2l.8, i32 %sub262
  %indvars.iv.next = add nuw nsw i64 %indvars.iv, 1
  %exitcond = icmp eq i64 %indvars.iv.next, %wide.trip.count
  br i1 %exitcond, label %cleanup, label %for.body

cleanup:                                          ; preds = %if.end258, %entry, %if.then254, %if.then220, %if.then187, %if.then153, %if.then120, %if.then87, %if.then54, %if.then23
  %retval.0 = phi i32 [ %inc, %if.then23 ], [ %inc43, %if.then54 ], [ %inc76, %if.then87 ], [ %inc109, %if.then120 ], [ %inc142, %if.then153 ], [ %inc176, %if.then187 ], [ %inc209, %if.then220 ], [ %inc243, %if.then254 ], [ 0, %entry ], [ %spec.select, %if.end258 ]
  ret i32 %retval.0
}

; Function Attrs: nounwind optsize
define dso_local i1 @_ZN6wayobj4fillEiiii(%class.wayobj* %this, i32 %startx, i32 %starty, i32 %endx, i32 %endy) local_unnamed_addr #8 align 2 {
entry:
  %fillnum = getelementptr inbounds %class.wayobj, %class.wayobj* %this, i64 0, i32 27
  %0 = load i16, i16* %fillnum, align 2, !tbaa !103
  %cmp = icmp eq i16 %0, -1
  br i1 %cmp, label %if.then, label %if.end

if.then:                                          ; preds = %entry
  %waymap = getelementptr inbounds %class.wayobj, %class.wayobj* %this, i64 0, i32 18
  %1 = bitcast %struct.waymapcellt** %waymap to i8**
  %2 = load i8*, i8** %1, align 8, !tbaa !88
  %mapxshift = getelementptr inbounds %class.wayobj, %class.wayobj* %this, i64 0, i32 0
  %3 = load i32, i32* %mapxshift, align 8, !tbaa !86
  %shl = shl nuw i32 1, %3
  %mapyshift = getelementptr inbounds %class.wayobj, %class.wayobj* %this, i64 0, i32 1
  %4 = load i32, i32* %mapyshift, align 4, !tbaa !87
  %shl2 = shl i32 %shl, %4
  %conv3 = sext i32 %shl2 to i64
  %mul = shl nsw i64 %conv3, 2
  tail call void @llvm.memset.p0i8.i64(i8* align 2 %2, i8 0, i64 %mul, i1 false)
  store i16 0, i16* %fillnum, align 2, !tbaa !103
  br label %if.end

if.end:                                           ; preds = %if.then, %entry
  %5 = phi i16 [ 0, %if.then ], [ %0, %entry ]
  %inc = add nuw i16 %5, 1
  store i16 %inc, i16* %fillnum, align 2, !tbaa !103
  %shift.i = getelementptr inbounds %class.wayobj, %class.wayobj* %this, i64 0, i32 2
  %6 = load i32, i32* %shift.i, align 8, !tbaa !84
  %shl.i = shl i32 %starty, %6
  %or.i = or i32 %shl.i, %startx
  %bound1p = getelementptr inbounds %class.wayobj, %class.wayobj* %this, i64 0, i32 19
  %7 = load i32*, i32** %bound1p, align 8, !tbaa !100
  store i32 %or.i, i32* %7, align 4, !tbaa !24
  %waymap7 = getelementptr inbounds %class.wayobj, %class.wayobj* %this, i64 0, i32 18
  %8 = load %struct.waymapcellt*, %struct.waymapcellt** %waymap7, align 8, !tbaa !88
  %9 = load i32, i32* %shift.i, align 8, !tbaa !84
  %shl8 = shl i32 %starty, %9
  %or = or i32 %shl8, %startx
  %idxprom = sext i32 %or to i64
  %fillnum10 = getelementptr inbounds %struct.waymapcellt, %struct.waymapcellt* %8, i64 %idxprom, i32 0
  store i16 %inc, i16* %fillnum10, align 2, !tbaa !127
  %num = getelementptr inbounds %struct.waymapcellt, %struct.waymapcellt* %8, i64 %idxprom, i32 1
  store i16 0, i16* %num, align 2, !tbaa !130
  %flend = getelementptr inbounds %class.wayobj, %class.wayobj* %this, i64 0, i32 23
  store i8 0, i8* %flend, align 8, !tbaa !132
  %shl.i44 = shl i32 %endy, %9
  %or.i45 = or i32 %shl.i44, %endx
  %endindex = getelementptr inbounds %class.wayobj, %class.wayobj* %this, i64 0, i32 25
  store i32 %or.i45, i32* %endindex, align 4, !tbaa !131
  %step = getelementptr inbounds %class.wayobj, %class.wayobj* %this, i64 0, i32 26
  store i16 1, i16* %step, align 8, !tbaa !129
  %bound2p28 = getelementptr inbounds %class.wayobj, %class.wayobj* %this, i64 0, i32 20
  br label %land.rhs

land.rhs:                                         ; preds = %while.body, %if.end
  %10 = phi i8 [ 0, %if.end ], [ %.pre48, %while.body ]
  %flodd.0.off047 = phi i32 [ 0, %if.end ], [ %11, %while.body ]
  %boundl.046 = phi i32 [ 1, %if.end ], [ %call30, %while.body ]
  %cmp21 = icmp eq i8 %10, 0
  br i1 %cmp21, label %while.body, label %while.end

while.body:                                       ; preds = %land.rhs
  %cmp24 = icmp eq i32 %flodd.0.off047, 0
  %bound2p28.sink = select i1 %cmp24, i32** %bound1p, i32** %bound2p28
  %bound1p.sink = select i1 %cmp24, i32** %bound2p28, i32** %bound1p
  %11 = xor i32 %flodd.0.off047, 1
  %12 = load i32*, i32** %bound2p28.sink, align 8, !tbaa !26
  %13 = load i32*, i32** %bound1p.sink, align 8, !tbaa !26
  %call30 = tail call i32 @_ZN6wayobj10makebound2EPiiS0_(%class.wayobj* nonnull %this, i32* %12, i32 %boundl.046, i32* %13) #19
  %14 = load i16, i16* %step, align 8, !tbaa !129
  %inc33 = add i16 %14, 1
  store i16 %inc33, i16* %step, align 8, !tbaa !129
  %cmp18 = icmp eq i32 %call30, 0
  %.pre48 = load i8, i8* %flend, align 8, !tbaa !132, !range !45
  br i1 %cmp18, label %if.end31.while.end_crit_edge, label %land.rhs

if.end31.while.end_crit_edge:                     ; preds = %while.body
  %phitmp = icmp ne i8 %.pre48, 0
  br label %while.end

while.end:                                        ; preds = %land.rhs, %if.end31.while.end_crit_edge
  %15 = phi i1 [ %phitmp, %if.end31.while.end_crit_edge ], [ true, %land.rhs ]
  ret i1 %15
}

; Function Attrs: nofree norecurse nounwind optsize
define dso_local i32 @_ZN6wayobj18makeobstaclebound2EPiiS0_(%class.wayobj* %this, i32* nocapture readonly %bound1p, i32 %bound1l, i32* nocapture %bound2p) local_unnamed_addr #9 align 2 {
entry:
  %maply = getelementptr inbounds %class.wayobj, %class.wayobj* %this, i64 0, i32 8
  %0 = load i32, i32* %maply, align 8, !tbaa !82
  %waymap2 = getelementptr inbounds %class.wayobj, %class.wayobj* %this, i64 0, i32 18
  %1 = load %struct.waymapcellt*, %struct.waymapcellt** %waymap2, align 8, !tbaa !88
  %cmp498 = icmp sgt i32 %bound1l, 0
  br i1 %cmp498, label %for.body.lr.ph, label %cleanup

for.body.lr.ph:                                   ; preds = %entry
  %fillnum6 = getelementptr inbounds %class.wayobj, %class.wayobj* %this, i64 0, i32 27
  %2 = load i16, i16* %fillnum6, align 2, !tbaa !103
  %maparp = getelementptr inbounds %class.wayobj, %class.wayobj* %this, i64 0, i32 17
  %step = getelementptr inbounds %class.wayobj, %class.wayobj* %this, i64 0, i32 26
  %maxboundlength = getelementptr inbounds %class.wayobj, %class.wayobj* %this, i64 0, i32 21
  %wide.trip.count = zext i32 %bound1l to i64
  br label %for.body

for.body:                                         ; preds = %if.end297, %for.body.lr.ph
  %indvars.iv = phi i64 [ 0, %for.body.lr.ph ], [ %indvars.iv.next, %if.end297 ]
  %bound2l.0499 = phi i32 [ 0, %for.body.lr.ph ], [ %spec.select, %if.end297 ]
  %arrayidx = getelementptr inbounds i32, i32* %bound1p, i64 %indvars.iv
  %3 = load i32, i32* %arrayidx, align 4, !tbaa !24
  %sub = sub nsw i32 %3, %0
  %sub3 = add nsw i32 %sub, -1
  %idxprom4 = sext i32 %sub3 to i64
  %fillnum = getelementptr inbounds %struct.waymapcellt, %struct.waymapcellt* %1, i64 %idxprom4, i32 0
  %4 = load i16, i16* %fillnum, align 2, !tbaa !127
  %cmp8 = icmp eq i16 %4, %2
  br i1 %cmp8, label %if.end29, label %if.then

if.then:                                          ; preds = %for.body
  %5 = load i16*, i16** %maparp, align 8, !tbaa !83
  %arrayidx10 = getelementptr inbounds i16, i16* %5, i64 %idxprom4
  %6 = load i16, i16* %arrayidx10, align 2, !tbaa !85
  %cmp12 = icmp sgt i16 %6, 0
  br i1 %cmp12, label %if.then13, label %if.else

if.then13:                                        ; preds = %if.then
  %idxprom14 = sext i32 %bound2l.0499 to i64
  %arrayidx15 = getelementptr inbounds i32, i32* %bound2p, i64 %idxprom14
  store i32 %sub3, i32* %arrayidx15, align 4, !tbaa !24
  %inc = add nsw i32 %bound2l.0499, 1
  store i16 %2, i16* %fillnum, align 2, !tbaa !127
  %7 = load i16, i16* %step, align 8, !tbaa !129
  %num = getelementptr inbounds %struct.waymapcellt, %struct.waymapcellt* %1, i64 %idxprom4, i32 1
  store i16 %7, i16* %num, align 2, !tbaa !130
  br label %if.end29

if.else:                                          ; preds = %if.then
  %cmp26 = icmp eq i16 %6, 0
  br i1 %cmp26, label %if.then27, label %if.end29

if.then27:                                        ; preds = %if.else
  %flend = getelementptr inbounds %class.wayobj, %class.wayobj* %this, i64 0, i32 23
  store i8 1, i8* %flend, align 8, !tbaa !132
  %endindex = getelementptr inbounds %class.wayobj, %class.wayobj* %this, i64 0, i32 25
  store i32 %sub3, i32* %endindex, align 4, !tbaa !131
  br label %cleanup

if.end29:                                         ; preds = %for.body, %if.then13, %if.else
  %bound2l.1 = phi i32 [ %inc, %if.then13 ], [ %bound2l.0499, %if.else ], [ %bound2l.0499, %for.body ]
  %idxprom31 = sext i32 %sub to i64
  %fillnum33 = getelementptr inbounds %struct.waymapcellt, %struct.waymapcellt* %1, i64 %idxprom31, i32 0
  %8 = load i16, i16* %fillnum33, align 2, !tbaa !127
  %cmp37 = icmp eq i16 %8, %2
  br i1 %cmp37, label %if.end67, label %if.then38

if.then38:                                        ; preds = %if.end29
  %9 = load i16*, i16** %maparp, align 8, !tbaa !83
  %arrayidx41 = getelementptr inbounds i16, i16* %9, i64 %idxprom31
  %10 = load i16, i16* %arrayidx41, align 2, !tbaa !85
  %cmp43 = icmp sgt i16 %10, 0
  br i1 %cmp43, label %if.then44, label %if.else56

if.then44:                                        ; preds = %if.then38
  %idxprom45 = sext i32 %bound2l.1 to i64
  %arrayidx46 = getelementptr inbounds i32, i32* %bound2p, i64 %idxprom45
  store i32 %sub, i32* %arrayidx46, align 4, !tbaa !24
  %inc47 = add nsw i32 %bound2l.1, 1
  store i16 %2, i16* %fillnum33, align 2, !tbaa !127
  %11 = load i16, i16* %step, align 8, !tbaa !129
  %num55 = getelementptr inbounds %struct.waymapcellt, %struct.waymapcellt* %1, i64 %idxprom31, i32 1
  store i16 %11, i16* %num55, align 2, !tbaa !130
  br label %if.end67

if.else56:                                        ; preds = %if.then38
  %cmp61 = icmp eq i16 %10, 0
  br i1 %cmp61, label %if.then62, label %if.end67

if.then62:                                        ; preds = %if.else56
  %flend63 = getelementptr inbounds %class.wayobj, %class.wayobj* %this, i64 0, i32 23
  store i8 1, i8* %flend63, align 8, !tbaa !132
  %endindex64 = getelementptr inbounds %class.wayobj, %class.wayobj* %this, i64 0, i32 25
  store i32 %sub, i32* %endindex64, align 4, !tbaa !131
  br label %cleanup

if.end67:                                         ; preds = %if.end29, %if.then44, %if.else56
  %bound2l.2 = phi i32 [ %inc47, %if.then44 ], [ %bound2l.1, %if.else56 ], [ %bound2l.1, %if.end29 ]
  %add = add nsw i32 %sub, 1
  %idxprom69 = sext i32 %add to i64
  %fillnum71 = getelementptr inbounds %struct.waymapcellt, %struct.waymapcellt* %1, i64 %idxprom69, i32 0
  %12 = load i16, i16* %fillnum71, align 2, !tbaa !127
  %cmp75 = icmp eq i16 %12, %2
  br i1 %cmp75, label %if.end105, label %if.then76

if.then76:                                        ; preds = %if.end67
  %13 = load i16*, i16** %maparp, align 8, !tbaa !83
  %arrayidx79 = getelementptr inbounds i16, i16* %13, i64 %idxprom69
  %14 = load i16, i16* %arrayidx79, align 2, !tbaa !85
  %cmp81 = icmp sgt i16 %14, 0
  br i1 %cmp81, label %if.then82, label %if.else94

if.then82:                                        ; preds = %if.then76
  %idxprom83 = sext i32 %bound2l.2 to i64
  %arrayidx84 = getelementptr inbounds i32, i32* %bound2p, i64 %idxprom83
  store i32 %add, i32* %arrayidx84, align 4, !tbaa !24
  %inc85 = add nsw i32 %bound2l.2, 1
  store i16 %2, i16* %fillnum71, align 2, !tbaa !127
  %15 = load i16, i16* %step, align 8, !tbaa !129
  %num93 = getelementptr inbounds %struct.waymapcellt, %struct.waymapcellt* %1, i64 %idxprom69, i32 1
  store i16 %15, i16* %num93, align 2, !tbaa !130
  br label %if.end105

if.else94:                                        ; preds = %if.then76
  %cmp99 = icmp eq i16 %14, 0
  br i1 %cmp99, label %if.then100, label %if.end105

if.then100:                                       ; preds = %if.else94
  %flend101 = getelementptr inbounds %class.wayobj, %class.wayobj* %this, i64 0, i32 23
  store i8 1, i8* %flend101, align 8, !tbaa !132
  %endindex102 = getelementptr inbounds %class.wayobj, %class.wayobj* %this, i64 0, i32 25
  store i32 %add, i32* %endindex102, align 4, !tbaa !131
  br label %cleanup

if.end105:                                        ; preds = %if.end67, %if.then82, %if.else94
  %bound2l.3 = phi i32 [ %inc85, %if.then82 ], [ %bound2l.2, %if.else94 ], [ %bound2l.2, %if.end67 ]
  %sub106 = add nsw i32 %3, -1
  %idxprom107 = sext i32 %sub106 to i64
  %fillnum109 = getelementptr inbounds %struct.waymapcellt, %struct.waymapcellt* %1, i64 %idxprom107, i32 0
  %16 = load i16, i16* %fillnum109, align 2, !tbaa !127
  %cmp113 = icmp eq i16 %16, %2
  br i1 %cmp113, label %if.end143, label %if.then114

if.then114:                                       ; preds = %if.end105
  %17 = load i16*, i16** %maparp, align 8, !tbaa !83
  %arrayidx117 = getelementptr inbounds i16, i16* %17, i64 %idxprom107
  %18 = load i16, i16* %arrayidx117, align 2, !tbaa !85
  %cmp119 = icmp sgt i16 %18, 0
  br i1 %cmp119, label %if.then120, label %if.else132

if.then120:                                       ; preds = %if.then114
  %idxprom121 = sext i32 %bound2l.3 to i64
  %arrayidx122 = getelementptr inbounds i32, i32* %bound2p, i64 %idxprom121
  store i32 %sub106, i32* %arrayidx122, align 4, !tbaa !24
  %inc123 = add nsw i32 %bound2l.3, 1
  store i16 %2, i16* %fillnum109, align 2, !tbaa !127
  %19 = load i16, i16* %step, align 8, !tbaa !129
  %num131 = getelementptr inbounds %struct.waymapcellt, %struct.waymapcellt* %1, i64 %idxprom107, i32 1
  store i16 %19, i16* %num131, align 2, !tbaa !130
  br label %if.end143

if.else132:                                       ; preds = %if.then114
  %cmp137 = icmp eq i16 %18, 0
  br i1 %cmp137, label %if.then138, label %if.end143

if.then138:                                       ; preds = %if.else132
  %flend139 = getelementptr inbounds %class.wayobj, %class.wayobj* %this, i64 0, i32 23
  store i8 1, i8* %flend139, align 8, !tbaa !132
  %endindex140 = getelementptr inbounds %class.wayobj, %class.wayobj* %this, i64 0, i32 25
  store i32 %sub106, i32* %endindex140, align 4, !tbaa !131
  br label %cleanup

if.end143:                                        ; preds = %if.end105, %if.then120, %if.else132
  %bound2l.4 = phi i32 [ %inc123, %if.then120 ], [ %bound2l.3, %if.else132 ], [ %bound2l.3, %if.end105 ]
  %add144 = add nsw i32 %3, 1
  %idxprom145 = sext i32 %add144 to i64
  %fillnum147 = getelementptr inbounds %struct.waymapcellt, %struct.waymapcellt* %1, i64 %idxprom145, i32 0
  %20 = load i16, i16* %fillnum147, align 2, !tbaa !127
  %cmp151 = icmp eq i16 %20, %2
  br i1 %cmp151, label %if.end181, label %if.then152

if.then152:                                       ; preds = %if.end143
  %21 = load i16*, i16** %maparp, align 8, !tbaa !83
  %arrayidx155 = getelementptr inbounds i16, i16* %21, i64 %idxprom145
  %22 = load i16, i16* %arrayidx155, align 2, !tbaa !85
  %cmp157 = icmp sgt i16 %22, 0
  br i1 %cmp157, label %if.then158, label %if.else170

if.then158:                                       ; preds = %if.then152
  %idxprom159 = sext i32 %bound2l.4 to i64
  %arrayidx160 = getelementptr inbounds i32, i32* %bound2p, i64 %idxprom159
  store i32 %add144, i32* %arrayidx160, align 4, !tbaa !24
  %inc161 = add nsw i32 %bound2l.4, 1
  store i16 %2, i16* %fillnum147, align 2, !tbaa !127
  %23 = load i16, i16* %step, align 8, !tbaa !129
  %num169 = getelementptr inbounds %struct.waymapcellt, %struct.waymapcellt* %1, i64 %idxprom145, i32 1
  store i16 %23, i16* %num169, align 2, !tbaa !130
  br label %if.end181

if.else170:                                       ; preds = %if.then152
  %cmp175 = icmp eq i16 %22, 0
  br i1 %cmp175, label %if.then176, label %if.end181

if.then176:                                       ; preds = %if.else170
  %flend177 = getelementptr inbounds %class.wayobj, %class.wayobj* %this, i64 0, i32 23
  store i8 1, i8* %flend177, align 8, !tbaa !132
  %endindex178 = getelementptr inbounds %class.wayobj, %class.wayobj* %this, i64 0, i32 25
  store i32 %add144, i32* %endindex178, align 4, !tbaa !131
  br label %cleanup

